ccopy_reg
_reconstructor
p0
(cpandas.core.frame
DataFrame
p1
c__builtin__
object
p2
Ntp3
Rp4
(dp5
S'_metadata'
p6
(lp7
sS'_typ'
p8
S'dataframe'
p9
sS'_data'
p10
g0
(cpandas.core.internals
BlockManager
p11
g2
Ntp12
Rp13
((lp14
cpandas.core.indexes.base
_new_Index
p15
(cpandas.core.indexes.base
Index
p16
(dp17
S'data'
p18
cnumpy.core.multiarray
_reconstruct
p19
(cnumpy
ndarray
p20
(I0
tp21
S'b'
p22
tp23
Rp24
(I1
(L4L
tp25
cnumpy
dtype
p26
(S'O8'
p27
I0
I1
tp28
Rp29
(I3
S'|'
p30
NNNI-1
I-1
I63
tp31
bI00
(lp32
S'Origin'
p33
aS'Destn'
p34
aS'areabrkup'
p35
aS'Wt'
p36
atp37
bsS'name'
p38
Nstp39
Rp40
ag15
(cpandas.core.indexes.range
RangeIndex
p41
(dp42
S'start'
p43
I0
sS'step'
p44
I1
sS'stop'
p45
I206
sg38
Nstp46
Rp47
a(lp48
g19
(g20
(I0
tp49
g22
tp50
Rp51
(I1
(L1L
L206L
tp52
g29
I00
(lp53
S'IDRH'
p54
aS'MAAH'
p55
aS'DELH'
p56
aS'BRGH'
p57
aS'DELH'
p58
aS'SXVF'
p59
aS'SNRH'
p60
aS'KNPH'
p61
aS'BLRH'
p62
aS'NAGH'
p63
aS'PNQH'
p64
aS'CCUH'
p65
aS'RPRH'
p66
aS'CJBH'
p67
aS'AMCH'
p68
aS'VPIH'
p69
aS'IDRH'
p70
aS'HYDH'
p71
aS'BLRH'
p72
aS'SXVF'
p73
aS'BOMH'
p74
aS'CCUH'
p75
aS'BRGH'
p76
aS'BOMH'
p77
aS'BBIH'
p78
aS'LUHB'
p79
aS'BGMH'
p80
aS'HYDH'
p81
aS'AMCH'
p82
aS'DELH'
p83
aS'BLRH'
p84
aS'PNQH'
p85
aS'HYDH'
p86
aS'VZAH'
p87
aS'RPRH'
p88
aS'JAIH'
p89
aS'IDRH'
p90
aS'COKH'
p91
aS'BLRH'
p92
aS'JAIH'
p93
aS'AMDH'
p94
aS'RDPH'
p95
aS'PNQH'
p96
aS'GOIB'
p97
aS'KNPH'
p98
aS'DELH'
p99
aS'GZBH'
p100
aS'AGRB'
p101
aS'IDRH'
p102
aS'MAAH'
p103
aS'BOMH'
p104
aS'PNQH'
p105
aS'PNQH'
p106
aS'BUPH'
p107
aS'CCUH'
p108
aS'NAGH'
p109
aS'RPRH'
p110
aS'CCUH'
p111
aS'IDRH'
p112
aS'MAAH'
p113
aS'IDRH'
p114
aS'IDRH'
p115
aS'AMDH'
p116
aS'VZAH'
p117
aS'COKH'
p118
aS'AGRB'
p119
aS'AMCH'
p120
aS'BOMH'
p121
aS'NAGH'
p122
aS'IDRH'
p123
aS'BRGH'
p124
aS'AMCH'
p125
aS'DELH'
p126
aS'AGRB'
p127
aS'AMDH'
p128
aS'SNRH'
p129
aS'PNQH'
p130
aS'JAIH'
p131
aS'BBIH'
p132
aS'HYDH'
p133
aS'MAAH'
p134
aS'BBIH'
p135
aS'BLRH'
p136
aS'BLRH'
p137
aS'GZBH'
p138
aS'BOMH'
p139
aS'AMCH'
p140
aS'AMDH'
p141
aS'PNQH'
p142
aS'VZAH'
p143
aS'KNPH'
p144
aS'SNRH'
p145
aS'PNQH'
p146
aS'VPIH'
p147
aS'AMCH'
p148
aS'COKH'
p149
aS'AMDH'
p150
aS'DELH'
p151
aS'BLRH'
p152
aS'MAAH'
p153
aS'MAAH'
p154
aS'VPIH'
p155
aS'BRGH'
p156
aS'BLRH'
p157
aS'AMCH'
p158
aS'MAAH'
p159
aS'BLRH'
p160
aS'DEDH'
p161
aS'SRAJH'
p162
aS'BOMH'
p163
aS'BRGH'
p164
aS'RPRH'
p165
aS'DELH'
p166
aS'SNRH'
p167
aS'PNWH'
p168
aS'BLRH'
p169
aS'VPIH'
p170
aS'PATH'
p171
aS'BOMH'
p172
aS'SRAJH'
p173
aS'BLRH'
p174
aS'BOMH'
p175
aS'AMCH'
p176
aS'GOIB'
p177
aS'PNQH'
p178
aS'BRGH'
p179
aS'BLRH'
p180
aS'HYDH'
p181
aS'PNQH'
p182
aS'DELH'
p183
aS'CJBH'
p184
aS'AMCH'
p185
aS'KNPH'
p186
aS'SXVF'
p187
aS'BOMH'
p188
aS'DELH'
p189
aS'DELH'
p190
aS'BOMH'
p191
aS'DELH'
p192
aS'VPIH'
p193
aS'VPIH'
p194
aS'DELH'
p195
aS'AMCH'
p196
aS'KNPH'
p197
aS'CJBH'
p198
aS'BOMH'
p199
aS'BOMH'
p200
aS'DELH'
p201
aS'PATH'
p202
aS'BOMH'
p203
aS'JAIH'
p204
aS'MAAH'
p205
aS'AMDH'
p206
aS'GZBH'
p207
aS'OIXH'
p208
aS'BBIH'
p209
aS'SRAJH'
p210
aS'DELH'
p211
aS'BGMH'
p212
aS'CCUH'
p213
aS'SNRH'
p214
aS'DELH'
p215
aS'BLRH'
p216
aS'HYDH'
p217
aS'GZBH'
p218
aS'HYDH'
p219
aS'PNQH'
p220
aS'NAGH'
p221
aS'BLRH'
p222
aS'IDRH'
p223
aS'GZBH'
p224
aS'NAGH'
p225
aS'VZAH'
p226
aS'AMCH'
p227
aS'IXCB'
p228
aS'HYDH'
p229
aS'PNQH'
p230
aS'VZAH'
p231
aS'IDRH'
p232
aS'CCUH'
p233
aS'AMDH'
p234
aS'KNPH'
p235
aS'AMCH'
p236
aS'BGMH'
p237
aS'AMCH'
p238
aS'BLRH'
p239
aS'CCUH'
p240
aS'CCUH'
p241
aS'DELH'
p242
aS'NAGH'
p243
aS'DELH'
p244
aS'PNQH'
p245
aS'PNQH'
p246
aS'BLRH'
p247
aS'AMDH'
p248
aS'IDRH'
p249
aS'KNPH'
p250
aS'JAIH'
p251
aS'GAUB'
p252
aS'SXVF'
p253
aS'GAUB'
p254
aS'BOMH'
p255
aS'HYDH'
p256
aS'AGRB'
p257
aS'CCUH'
p258
aS'KNPH'
p259
atp260
bag19
(g20
(I0
tp261
g22
tp262
Rp263
(I1
(L1L
L206L
tp264
g29
I00
(lp265
S'NAGH'
p266
aS'BOMH'
p267
aS'AGRB'
p268
aS'DELH'
p269
aS'MAAH'
p270
aS'CJBH'
p271
aS'BOMH'
p272
aS'PATH'
p273
aS'CCUH'
p274
aS'HYDH'
p275
aS'VPIH'
p276
aS'VZAH'
p277
aS'NAGH'
p278
aS'SXVF'
p279
aS'BOMH'
p280
aS'AMDH'
p281
aS'PNQH'
p282
aS'DELH'
p283
aS'VZAH'
p284
aS'MAAH'
p285
aS'BLRH'
p286
aS'DELH'
p287
aS'PATH'
p288
aS'HYDH'
p289
aS'RPRH'
p290
aS'AMCH'
p291
aS'BLRH'
p292
aS'HYDH'
p293
aS'KNPH'
p294
aS'AMCH'
p295
aS'AMCH'
p296
aS'NAGH'
p297
aS'BLRH'
p298
aS'BBIH'
p299
aS'BOMH'
p300
aS'SRAJH'
p301
aS'BLRH'
p302
aS'BLRH'
p303
aS'CJBH'
p304
aS'AMDH'
p305
aS'BOMH'
p306
aS'GZBH'
p307
aS'SNRH'
p308
aS'PNQH'
p309
aS'AMCH'
p310
aS'HYDH'
p311
aS'DELH'
p312
aS'DELH'
p313
aS'SNRH'
p314
aS'DELH'
p315
aS'AMCH'
p316
aS'BLRH'
p317
aS'IDRH'
p318
aS'AMCH'
p319
aS'BOMH'
p320
aS'NAGH'
p321
aS'BRGH'
p322
aS'GAUB'
p323
aS'BOMH'
p324
aS'SXVF'
p325
aS'KNPH'
p326
aS'AGRB'
p327
aS'BLRH'
p328
aS'HYDH'
p329
aS'CJBH'
p330
aS'GZBH'
p331
aS'IXCB'
p332
aS'SNRH'
p333
aS'BOMH'
p334
aS'MAAH'
p335
aS'KNPH'
p336
aS'VPIH'
p337
aS'PNQH'
p338
aS'IDRH'
p339
aS'SRAJH'
p340
aS'DELH'
p341
aS'DELH'
p342
aS'AMCH'
p343
aS'VZAH'
p344
aS'MAAH'
p345
aS'VZAH'
p346
aS'CCUH'
p347
aS'IDRH'
p348
aS'JAIH'
p349
aS'RDPH'
p350
aS'DELH'
p351
aS'PNWH'
p352
aS'JAIH'
p353
aS'HYDH'
p354
aS'CCUH'
p355
aS'AGRB'
p356
aS'NAGH'
p357
aS'GOIB'
p358
aS'AMCH'
p359
aS'BUPH'
p360
aS'SXVF'
p361
aS'DELH'
p362
aS'VPIH'
p363
aS'COKH'
p364
aS'HYDH'
p365
aS'IDRH'
p366
aS'JAIH'
p367
aS'RPRH'
p368
aS'PNQH'
p369
aS'BLRH'
p370
aS'BLRH'
p371
aS'HYDH'
p372
aS'AMCH'
p373
aS'DELH'
p374
aS'AMDH'
p375
aS'BBIH'
p376
aS'BBIH'
p377
aS'JAIH'
p378
aS'PNQH'
p379
aS'AMCH'
p380
aS'AMDH'
p381
aS'BLRH'
p382
aS'BRGH'
p383
aS'CCUH'
p384
aS'JAIH'
p385
aS'DELH'
p386
aS'PNQH'
p387
aS'DEDH'
p388
aS'BGMH'
p389
aS'AMDH'
p390
aS'CCUH'
p391
aS'BOMH'
p392
aS'IDRH'
p393
aS'BOMH'
p394
aS'NAGH'
p395
aS'BLRH'
p396
aS'GZBH'
p397
aS'GZBH'
p398
aS'BLRH'
p399
aS'JAIH'
p400
aS'IDRH'
p401
aS'GZBH'
p402
aS'NAGH'
p403
aS'SRAJH'
p404
aS'PNQH'
p405
aS'BOMH'
p406
aS'BLRH'
p407
aS'LUHB'
p408
aS'IDRH'
p409
aS'COKH'
p410
aS'RPRH'
p411
aS'VPIH'
p412
aS'BRGH'
p413
aS'KNPH'
p414
aS'IDRH'
p415
aS'DELH'
p416
aS'PNQH'
p417
aS'PNQH'
p418
aS'KNPH'
p419
aS'AMCH'
p420
aS'BRGH'
p421
aS'AMDH'
p422
aS'BOMH'
p423
aS'PNQH'
p424
aS'BLRH'
p425
aS'IDRH'
p426
aS'AMDH'
p427
aS'VPIH'
p428
aS'NAGH'
p429
aS'AMCH'
p430
aS'VZAH'
p431
aS'JAIH'
p432
aS'IDRH'
p433
aS'MAAH'
p434
aS'HYDH'
p435
aS'AGRB'
p436
aS'RPRH'
p437
aS'MAAH'
p438
aS'IDRH'
p439
aS'AMCH'
p440
aS'PNQH'
p441
aS'CCUH'
p442
aS'BLRH'
p443
aS'AMDH'
p444
aS'BBIH'
p445
aS'VPIH'
p446
aS'BRGH'
p447
aS'OIXH'
p448
aS'GOIB'
p449
aS'DELH'
p450
aS'BGMH'
p451
aS'KNPH'
p452
aS'PNQH'
p453
aS'CCUH'
p454
aS'PNQH'
p455
aS'KNPH'
p456
aS'MAAH'
p457
aS'BGMH'
p458
aS'SXVF'
p459
aS'IDRH'
p460
aS'DELH'
p461
aS'CCUH'
p462
aS'PNQH'
p463
aS'CCUH'
p464
aS'COKH'
p465
aS'KNPH'
p466
aS'MAAH'
p467
aS'BOMH'
p468
aS'KNPH'
p469
aS'BRGH'
p470
aS'DELH'
p471
atp472
bag19
(g20
(I0
tp473
g22
tp474
Rp475
(I1
(L1L
L206L
tp476
g29
I00
(lp477
(dp478
S'westup-cgsa'
p479
F0.09
sS'idra-orsa'
p480
F0.71
sS'jaia-naga'
p481
F0.05
sS'idra-ixub'
p482
F0.09
sS'amda-naga'
p483
F0.82
sS'amda-cgsa'
p484
F0.74
sS'ixca-naga'
p485
F0.77
sS'maaa-naga'
p486
F0.84
sS'westup-naga'
p487
F0.14
sS'jaia-cgsa'
p488
F0.09
sS'idra-cgsa'
p489
F0.22
sS'eastukna-naga'
p490
F0.02
sS'eastup-cgsa'
p491
F0.08
sS'amda-orsa'
p492
F0.75
sS'eastup-naga'
p493
F0.13
sS'idra-jspa'
p494
F0.06
sS'amda-jspa'
p495
F0.57
sS'maaa-cgsa'
p496
F2.11
sS'ixca-cgsa'
p497
F1.79
sS'eastukna-cgsa'
p498
F0.07
sS'idra-naga'
p499
F0.35
sa(dp500
S'maaa-boma'
p501
F10.56
sa(dp502
S'apda-westup'
p503
F0.01
sS'jaia-westup'
p504
F0.01
sS'coka-westup'
p505
F0.08
sS'ncrnonup-westup'
p506
F2.31
sS'hyda-westup'
p507
F0.16
sS'pnpf-westup'
p508
F0.31
sS'ixma-westup'
p509
F0.01
sS'cbea-westup'
p510
F0.0
sS'sjaia-westup'
p511
F0.03
sS'maaa-westup'
p512
F1.07
sS'blraexnktk-westup'
p513
F1.3
sa(dp514
S'jspa-sjaia'
p515
F0.0
sS'orsa-sjaia'
p516
F0.01
sS'jspa-ncrnonup'
p517
F0.35
sS'orsa-jaia'
p518
F0.02
sS'jspa-ixca'
p519
F0.01
sS'orsa-ncrnonup'
p520
F0.22
sS'jspa-jaia'
p521
F0.02
sa(dp522
S'ixca-maaa'
p523
F9.860000000000001
sS'jaia-maaa'
p524
F1.34
sS'pnpf-maaa'
p525
F0.91
sS'ncrup-maaa'
p526
F5.77
sS'ncrnonup-maaa'
p527
F26.95
sa(dp528
S'maaa-cbea'
p529
F2.74
sS'ixma-cbea'
p530
F0.33
sa(dp531
S'snra-amda'
p532
F0.33
sS'snra-sjaia'
p533
F0.35
sS'snra-jspa'
p534
F0.24
sS'snra-sguj'
p535
F0.02
sS'snra-boma'
p536
F0.93
sS'snra-cgsa'
p537
F0.29
sS'snra-orsa'
p538
F0.33
sa(dp539
S'boma-path'
p540
F1.8
sS'pnpf-path'
p541
F0.25
sS'ixca-path'
p542
F1.67
sS'goia-path'
p543
F0.26
sS'westup-path'
p544
F0.21
sS'amda-path'
p545
F0.79
sS'pnqa-path'
p546
F0.54
sS'ncrnonup-path'
p547
F3.97
sS'sguj-path'
p548
F0.67
sS'jaia-path'
p549
F0.42
sS'eastukna-path'
p550
F0.06
sS'eastup-path'
p551
F0.27
sS'snra-path'
p552
F0.2
sS'ncrup-path'
p553
F1.03
sS'idra-path'
p554
F0.04
sa(dp555
S'blraexnktk-guaa'
p556
F0.59
sS'coka-guaa'
p557
F0.05
sS'ixma-ccua'
p558
F0.17
sS'cbea-ccua'
p559
F1.36
sS'blraexnktk-ccua'
p560
F7.52
sS'ixma-guaa'
p561
F0.0
sS'cbea-guaa'
p562
F0.03
sS'coka-ccua'
p563
F0.14
sa(dp564
S'naga-cbea'
p565
F0.21
sS'cgsa-coka'
p566
F0.0
sS'cgsa-tirb'
p567
F0.01
sS'cgsa-hyda'
p568
F0.03
sS'naga-tirb'
p569
F0.07
sS'naga-hyda'
p570
F0.7
sS'cgsa-cbea'
p571
F0.0
sS'cgsa-apda'
p572
F0.0
sS'naga-maaa'
p573
F0.48
sS'cgsa-blraexnktk'
p574
F0.03
sS'naga-blraexnktk'
p575
F1.05
sS'naga-ixma'
p576
F0.3
sS'naga-apda'
p577
F0.29
sS'naga-coka'
p578
F0.33
sa(dp579
S'goia-sguj'
p580
F0.17
sS'pnqa-sguj'
p581
F2.01
sa(dp582
S'ccua-hyda'
p583
F1.6
sS'guaa-maaa'
p584
F0.13
sS'ccua-tirb'
p585
F0.07
sS'ccua-apda'
p586
F0.61
sS'guaa-apda'
p587
F0.0
sS'guaa-hyda'
p588
F0.05
sS'ccua-maaa'
p589
F2.29
sa(dp590
S'guaa-naga'
p591
F0.03
sS'cgsa-idra'
p592
F0.39
sS'cgsa-amda'
p593
F0.02
sS'cgsa-maaa'
p594
F0.16
sS'cgsa-jaia'
p595
F0.01
sS'cgsa-eastup'
p596
F0.07
sS'orsa-idra'
p597
F0.12
sS'jspa-idra'
p598
F0.03
sS'cgsa-ncrnonup'
p599
F0.04
sS'ccua-ixub'
p600
F0.11
sS'cgsa-tirb'
p601
F0.01
sS'cgsa-blraexnktk'
p602
F0.03
sS'cgsa-naga'
p603
F0.29
sS'cgsa-hyda'
p604
F0.03
sS'cgsa-cbea'
p605
F0.0
sS'cgsa-apda'
p606
F0.0
sS'jspa-naga'
p607
F0.01
sS'cgsa-ixca'
p608
F0.04
sS'path-naga'
p609
F0.02
sS'cgsa-ncrup'
p610
F0.08
sS'orsa-naga'
p611
F0.02
sS'jspa-amda'
p612
F0.06
sS'orsa-amda'
p613
F0.09
sS'cgsa-coka'
p614
F0.0
sS'cgsa-sjaia'
p615
F0.0
sS'ccua-naga'
p616
F0.31
sS'guaa-ixub'
p617
F0.0
sa(dp618
S'cbea-maaa'
p619
F0.65
sS'cbea-ixma'
p620
F0.27
sa(dp621
S'ixca-goia'
p622
F0.7200000000000001
sS'ixca-ixub'
p623
F0.27
sS'ixca-nktk'
p624
F0.34
sS'ixca-pnqa'
p625
F3.9099999999999997
sS'ixca-boma'
p626
F6.130000000000001
sS'ixca-snra'
p627
F0.47000000000000003
sa(dp628
S'sguj-ncrnonup'
p629
F3.76
sS'sguj-ncrup'
p630
F0.78
sS'sguj-amda'
p631
F1.27
sS'sguj-sjaia'
p632
F0.23
sS'sguj-pnpf'
p633
F0.09
sa(dp634
S'idra-goia'
p635
F0.23
sS'westup-pnqa'
p636
F0.66
sS'eastup-pnqa'
p637
F0.13
sS'path-pnqa'
p638
F0.04
sS'eastup-nktk'
p639
F0.0
sS'path-goia'
p640
F0.0
sS'westup-goia'
p641
F0.09
sS'idra-nktk'
p642
F0.24
sS'idra-pnqa'
p643
F0.96
sS'guaa-pnqa'
p644
F0.03
sS'eastup-goia'
p645
F0.03
sa(dp646
S'hyda-pnpf'
p647
F0.06
sS'tirb-ncrup'
p648
F0.05
sS'apda-westup'
p649
F0.01
sS'apda-sjaia'
p650
F0.04
sS'hyda-ncrup'
p651
F0.41
sS'hyda-westup'
p652
F0.16
sS'apda-ncrup'
p653
F0.12
sS'hyda-ixca'
p654
F4.56
sS'hyda-jaia'
p655
F0.5
sS'tirb-ncrnonup'
p656
F0.41
sS'hyda-sjaia'
p657
F0.12
sS'apda-ixca'
p658
F2.2499999999999996
sS'apda-jaia'
p659
F0.04
sS'tirb-jaia'
p660
F0.05
sS'apda-ncrnonup'
p661
F1.5
sS'hyda-ncrnonup'
p662
F3.33
sS'apda-pnpf'
p663
F0.01
sa(dp664
S'cbea-apda'
p665
F0.27
sS'coka-jspa'
p666
F0.0
sS'nktk-jspa'
p667
F0.01
sS'coka-orsa'
p668
F0.14
sS'nktk-apda'
p669
F0.18
sS'ixma-orsa'
p670
F0.0
sS'coka-apda'
p671
F0.13
sS'coka-path'
p672
F0.07
sS'cbea-orsa'
p673
F0.29
sS'ixma-jspa'
p674
F0.01
sS'ixma-apda'
p675
F0.07
sS'ixma-path'
p676
F0.0
sS'blraexnktk-apda'
p677
F3.27
sS'blraexnktk-orsa'
p678
F1.4
sS'blraexnktk-jspa'
p679
F0.91
sS'blraexnktk-path'
p680
F0.57
sS'nktk-orsa'
p681
F0.14
sS'cbea-path'
p682
F0.04
sS'cbea-jspa'
p683
F1.84
sa(dp684
S'coka-maaa'
p685
F0.94
sS'cbea-maaa'
p686
F0.65
sS'ixma-tirb'
p687
F0.03
sS'ixma-maaa'
p688
F0.34
sa(dp689
S'boma-cbea'
p690
F3.36
sS'boma-ixma'
p691
F1.19
sS'boma-blraexnktk'
p692
F32.73
sS'boma-coka'
p693
F5.86
sa(dp694
S'ccua-jaia'
p695
F1.26
sS'ccua-sjaia'
p696
F0.11
sS'ccua-pnpf'
p697
F0.06
sS'ccua-ncrnonup'
p698
F4.52
sa(dp699
S'maaa-path'
p700
F0.67
sS'apda-path'
p701
F0.07
sS'hyda-path'
p702
F0.43
sS'guaa-path'
p703
F0.28
sS'orsa-path'
p704
F0.2
sS'ccua-path'
p705
F4.19
sS'coka-path'
p706
F0.07
sS'naga-path'
p707
F0.21
sS'ixub-path'
p708
F0.19
sS'ixma-path'
p709
F0.0
sS'tirb-path'
p710
F0.0
sS'jspa-path'
p711
F0.44
sS'cgsa-path'
p712
F0.04
sS'cbea-path'
p713
F0.04
sS'blraexnktk-path'
p714
F0.57
sa(dp715
S'boma-tirb'
p716
F0.47
sS'boma-hyda'
p717
F17.71
sS'boma-apda'
p718
F4.71
sa(dp719
S'guaa-naga'
p720
F0.03
sS'ccua-ixub'
p721
F0.11
sS'orsa-naga'
p722
F0.02
sS'orsa-boma'
p723
F0.19
sS'orsa-cgsa'
p724
F0.33
sS'orsa-amda'
p725
F0.09
sS'orsa-snra'
p726
F0.03
sS'ccua-naga'
p727
F0.31
sS'guaa-ixub'
p728
F0.0
sS'orsa-idra'
p729
F0.12
sS'guaa-cgsa'
p730
F0.12
sS'orsa-goia'
p731
F0.01
sS'orsa-sguj'
p732
F0.01
sS'orsa-pnqa'
p733
F0.01
sS'ccua-cgsa'
p734
F0.79
sa(dp735
S'ixca-maaa'
p736
F4.890000000000001
sS'ixca-naga'
p737
F0.23
sS'ixca-goia'
p738
F0.11
sS'ixca-ixub'
p739
F0.05
sS'ixca-ixma'
p740
F0.42000000000000004
sS'ixca-sjaia'
p741
F0.03
sS'ixca-eastukna'
p742
F0.27
sS'ixca-guaa'
p743
F0.02
sS'ixca-jspa'
p744
F0.1
sS'ixca-pnpf'
p745
F0.18
sS'ixca-amda'
p746
F0.54
sS'ixca-coka'
p747
F0.56
sS'ixca-idra'
p748
F0.6499999999999999
sS'ixca-nktk'
p749
F0.26
sS'ixca-cgsa'
p750
F1.06
sS'ixca-sguj'
p751
F0.18
sS'ixca-ncrup'
p752
F0.73
sS'ixca-path'
p753
F0.38
sS'ixca-blraexnktk'
p754
F7.4399999999999995
sS'ixca-eastup'
p755
F1.59
sS'ixca-ccua'
p756
F2.7199999999999998
sS'ixca-apda'
p757
F0.47000000000000003
sS'ixca-snra'
p758
F0.16
sS'ixca-ncrnonup'
p759
F5.47
sS'ixca-jaia'
p760
F0.33999999999999997
sS'ixca-ixca'
p761
F0.8899999999999999
sS'ixca-hyda'
p762
F0.8400000000000001
sS'ixca-westup'
p763
F0.25
sS'ixca-orsa'
p764
F0.37
sS'ixca-pnqa'
p765
F1.76
sS'ixca-cbea'
p766
F0.060000000000000005
sS'ixca-boma'
p767
F1.54
sa(dp768
S'nktk-hyda'
p769
F0.02
sS'goia-ixma'
p770
F0.15
sS'goia-blraexnktk'
p771
F0.77
sS'nktk-cbea'
p772
F0.18
sS'nktk-apda'
p773
F0.18
sS'nktk-coka'
p774
F0.17
sS'goia-coka'
p775
F0.3
sS'nktk-blraexnktk'
p776
F0.36
sS'nktk-tirb'
p777
F0.02
sS'goia-cbea'
p778
F0.08
sS'nktk-ixma'
p779
F0.03
sS'nktk-maaa'
p780
F0.04
sS'goia-maaa'
p781
F0.7
sS'nktk-orsa'
p782
F0.14
sS'nktk-jspa'
p783
F0.01
sa(dp784
S'hyda-tirb'
p785
F1.39
sS'tirb-hyda'
p786
F0.43
sa(dp787
S'ixca-path'
p788
F1.25
sS'ixca-orsa'
p789
F1.3100000000000003
sS'ixca-eastup'
p790
F4.409999999999999
sS'ixca-ccua'
p791
F6.88
sS'ixca-guaa'
p792
F1.4900000000000002
sS'ixca-jspa'
p793
F0.96
sa(dp794
S'ncrnonup-ixca'
p795
F18.38
sS'sjaia-ixca'
p796
F0.02
sS'naga-ixca'
p797
F0.45999999999999996
sS'hyda-ixca'
p798
F4.56
sS'ncrnonup-pnpf'
p799
F0.86
sS'amda-ixca'
p800
F4.61
sS'idra-ixca'
p801
F0.68
sS'apda-ixca'
p802
F2.2499999999999996
sS'cgsa-ixca'
p803
F0.04
sS'snra-ixca'
p804
F1.08
sS'maaa-ixca'
p805
F11.940000000000001
sa(dp806
S'blraexnktk-ixca'
p807
F7.89
sS'cbea-pnpf'
p808
F0.01
sS'cbea-ixca'
p809
F1.03
sS'ixma-ixca'
p810
F0.04
sS'coka-ixca'
p811
F0.61
sa(dp812
S'snra-naga'
p813
F0.09
sS'pnqa-naga'
p814
F3.64
sS'goia-naga'
p815
F0.12
sa(dp816
S'naga-cbea'
p817
F0.21
sS'cgsa-coka'
p818
F0.0
sS'hyda-nktk'
p819
F0.49
sS'tirb-nktk'
p820
F0.01
sS'hyda-ixma'
p821
F0.43
sS'hyda-blraexnktk'
p822
F4.05
sS'hyda-coka'
p823
F0.85
sS'cgsa-cbea'
p824
F0.0
sS'tirb-cbea'
p825
F0.01
sS'cgsa-blraexnktk'
p826
F0.03
sS'hyda-cbea'
p827
F0.67
sS'naga-ixma'
p828
F0.3
sS'tirb-blraexnktk'
p829
F0.37
sS'naga-blraexnktk'
p830
F1.05
sS'naga-coka'
p831
F0.33
sa(dp832
S'coka-jspa'
p833
F0.0
sS'nktk-jspa'
p834
F0.01
sS'maaa-orsa'
p835
F0.84
sS'tirb-orsa'
p836
F0.0
sS'tirb-path'
p837
F0.0
sS'ixma-orsa'
p838
F0.0
sS'blraexnktk-path'
p839
F0.57
sS'hyda-jspa'
p840
F1.08
sS'maaa-path'
p841
F0.67
sS'hyda-orsa'
p842
F0.55
sS'apda-jspa'
p843
F0.21
sS'blraexnktk-jspa'
p844
F0.91
sS'nktk-orsa'
p845
F0.14
sS'cbea-jspa'
p846
F1.84
sS'hyda-path'
p847
F0.43
sS'coka-path'
p848
F0.07
sS'cbea-path'
p849
F0.04
sS'ixma-jspa'
p850
F0.01
sS'coka-orsa'
p851
F0.14
sS'apda-path'
p852
F0.07
sS'maaa-jspa'
p853
F1.26
sS'apda-orsa'
p854
F0.14
sS'cbea-orsa'
p855
F0.29
sS'blraexnktk-orsa'
p856
F1.4
sS'ixma-path'
p857
F0.0
sa(dp858
S'cgsa-pnqa'
p859
F0.09
sS'orsa-boma'
p860
F0.19
sS'jspa-sguj'
p861
F0.02
sS'cgsa-goia'
p862
F0.0
sS'cgsa-boma'
p863
F0.33
sS'jspa-snra'
p864
F0.0
sS'orsa-snra'
p865
F0.03
sS'jspa-boma'
p866
F0.25
sS'jspa-pnqa'
p867
F0.37
sS'orsa-goia'
p868
F0.01
sS'cgsa-sguj'
p869
F0.0
sS'orsa-sguj'
p870
F0.01
sS'orsa-pnqa'
p871
F0.01
sS'jspa-ixub'
p872
F0.7
sa(dp873
S'jaia-sjaia'
p874
F0.68
sa(dp875
S'eastup-ixma'
p876
F0.02
sS'eastup-coka'
p877
F0.07
sS'eastukna-cbea'
p878
F0.27
sS'westup-ixma'
p879
F0.16
sS'eastukna-blraexnktk'
p880
F1.26
sS'eastup-blraexnktk'
p881
F0.42
sS'westup-cbea'
p882
F1.79
sS'eastukna-ixma'
p883
F0.05
sS'idra-coka'
p884
F0.08
sS'idra-blraexnktk'
p885
F1.42
sS'westup-coka'
p886
F0.66
sS'idra-cbea'
p887
F0.77
sS'westup-blraexnktk'
p888
F3.48
sS'idra-ixma'
p889
F0.43
sS'eastukna-coka'
p890
F0.0
sS'eastup-cbea'
p891
F0.24
sa(dp892
S'coka-jspa'
p893
F0.0
sS'coka-ncrup'
p894
F0.26
sS'coka-ixub'
p895
F0.0
sS'coka-pnpf'
p896
F0.01
sS'coka-cgsa'
p897
F0.02
sS'coka-sjaia'
p898
F0.01
sS'coka-idra'
p899
F0.64
sS'coka-amda'
p900
F0.27
sS'coka-goia'
p901
F0.02
sS'coka-jaia'
p902
F0.39
sS'coka-eastup'
p903
F0.32
sS'coka-nktk'
p904
F0.03
sS'coka-ncrnonup'
p905
F1.46
sS'coka-pnqa'
p906
F0.62
sS'coka-tirb'
p907
F0.1
sS'coka-guaa'
p908
F0.05
sS'coka-boma'
p909
F0.88
sS'coka-path'
p910
F0.07
sS'coka-blraexnktk'
p911
F1.51
sS'coka-sguj'
p912
F0.36
sS'coka-ccua'
p913
F0.14
sS'coka-orsa'
p914
F0.14
sS'coka-westup'
p915
F0.08
sS'coka-hyda'
p916
F1.43
sS'coka-eastukna'
p917
F0.01
sS'coka-apda'
p918
F0.13
sS'coka-snra'
p919
F0.1
sS'coka-naga'
p920
F0.01
sS'coka-ixca'
p921
F0.61
sa(dp922
S'pnqa-cbea'
p923
F3.75
sS'snra-cbea'
p924
F0.27
sS'westup-cbea'
p925
F1.79
sS'hyda-cbea'
p926
F0.67
sS'ncrnonup-cbea'
p927
F3.58
sS'guaa-cbea'
p928
F0.0
sS'ixca-cbea'
p929
F0.6900000000000001
sS'path-cbea'
p930
F0.01
sS'ccua-cbea'
p931
F0.48
sS'pnpf-cbea'
p932
F0.05
sS'boma-cbea'
p933
F3.36
sS'jaia-cbea'
p934
F0.07
sS'ncrup-cbea'
p935
F0.63
sS'ixub-cbea'
p936
F0.48
sS'jspa-cbea'
p937
F0.09
sS'cgsa-cbea'
p938
F0.0
sS'goia-cbea'
p939
F0.08
sS'apda-cbea'
p940
F0.07
sS'naga-cbea'
p941
F0.21
sS'eastukna-cbea'
p942
F0.27
sS'nktk-cbea'
p943
F0.18
sS'amda-cbea'
p944
F1.54
sS'sguj-cbea'
p945
F0.73
sS'tirb-cbea'
p946
F0.01
sS'orsa-cbea'
p947
F0.01
sS'blraexnktk-cbea'
p948
F2.98
sS'idra-cbea'
p949
F0.77
sS'eastup-cbea'
p950
F0.24
sa(dp951
S'jaia-naga'
p952
F0.05
sS'jaia-sguj'
p953
F0.06
sS'jaia-idra'
p954
F0.34
sS'jaia-boma'
p955
F1.39
sS'jaia-cgsa'
p956
F0.09
sS'jaia-amda'
p957
F0.29
sa(dp958
S'amda-boma'
p959
F4.59
sS'jaia-boma'
p960
F1.39
sS'amda-snra'
p961
F0.22
sS'amda-ixub'
p962
F0.83
sS'sjaia-boma'
p963
F0.15
sS'sjaia-ixub'
p964
F0.0
sa(dp965
S'eastukna-amda'
p966
F0.42
sS'eastukna-ncrup'
p967
F0.04
sS'eastukna-boma'
p968
F0.37
sS'eastukna-westup'
p969
F0.01
sS'eastukna-maaa'
p970
F0.53
sS'eastukna-pnqa'
p971
F0.22
sS'eastukna-ixma'
p972
F0.05
sS'eastukna-guaa'
p973
F0.07
sS'eastukna-idra'
p974
F0.19
sS'eastukna-ixca'
p975
F0.43000000000000005
sS'eastukna-eastup'
p976
F0.2
sS'eastukna-sjaia'
p977
F0.02
sS'eastukna-path'
p978
F0.06
sS'eastukna-coka'
p979
F0.0
sS'eastukna-ccua'
p980
F0.25
sS'eastukna-cbea'
p981
F0.27
sS'eastukna-hyda'
p982
F0.16
sS'eastukna-blraexnktk'
p983
F1.26
sS'eastukna-ncrnonup'
p984
F0.85
sS'eastukna-naga'
p985
F0.02
sS'eastukna-jspa'
p986
F0.02
sS'eastukna-apda'
p987
F0.02
sS'eastukna-sguj'
p988
F0.02
sS'eastukna-jaia'
p989
F0.39
sS'eastukna-cgsa'
p990
F0.07
sS'eastukna-orsa'
p991
F0.37
sa(dp992
S'goia-snra'
p993
F0.44
sS'hyda-snra'
p994
F0.05
sS'apda-snra'
p995
F0.13
sS'jaia-snra'
p996
F0.01
sS'ccua-snra'
p997
F0.17
sS'sguj-snra'
p998
F0.17
sS'maaa-ixub'
p999
F2.32
sS'pnqa-ixub'
p1000
F2.01
sS'hyda-ixub'
p1001
F0.1
sS'apda-ixub'
p1002
F0.27
sS'pnqa-snra'
p1003
F2.65
sS'goia-ixub'
p1004
F0.18
sS'naga-snra'
p1005
F0.13
sS'nktk-snra'
p1006
F0.0
sS'maaa-snra'
p1007
F1.06
sS'jaia-ixub'
p1008
F0.01
sS'tirb-ixub'
p1009
F0.01
sa(dp1010
S'goia-snra'
p1011
F0.44
sS'goia-path'
p1012
F0.26
sS'goia-ncrup'
p1013
F0.19
sS'goia-apda'
p1014
F0.22
sS'goia-idra'
p1015
F0.17
sS'goia-pnpf'
p1016
F0.0
sS'goia-sguj'
p1017
F0.17
sS'goia-eastup'
p1018
F0.5
sS'goia-ixca'
p1019
F1.18
sS'goia-eastukna'
p1020
F0.01
sS'goia-sjaia'
p1021
F0.04
sS'goia-hyda'
p1022
F1.0
sS'goia-ncrnonup'
p1023
F0.41
sS'goia-boma'
p1024
F0.8
sS'goia-guaa'
p1025
F0.2
sS'goia-ccua'
p1026
F0.6
sS'goia-jspa'
p1027
F0.33
sS'goia-pnqa'
p1028
F0.43
sS'goia-naga'
p1029
F0.12
sS'goia-westup'
p1030
F0.03
sS'goia-orsa'
p1031
F0.53
sS'goia-jaia'
p1032
F0.31
sS'goia-ixub'
p1033
F0.18
sS'goia-cgsa'
p1034
F0.3
sS'goia-amda'
p1035
F0.4
sS'goia-tirb'
p1036
F0.05
sa(dp1037
S'guaa-ixca'
p1038
F0.03
sS'path-ixca'
p1039
F0.07
sS'eastup-ixca'
p1040
F1.7399999999999998
sS'orsa-ixca'
p1041
F0.03
sS'ccua-ixca'
p1042
F2.35
sS'jspa-ixca'
p1043
F0.24000000000000002
sa(dp1044
S'ncrnonup-hyda'
p1045
F11.7
sS'jaia-hyda'
p1046
F0.54
sS'pnpf-hyda'
p1047
F0.11
sS'sjaia-hyda'
p1048
F0.15
sS'ncrup-tirb'
p1049
F0.09
sS'jaia-apda'
p1050
F0.04
sS'ncrup-hyda'
p1051
F2.8
sS'ncrnonup-apda'
p1052
F4.19
sS'pnpf-apda'
p1053
F0.04
sS'sjaia-apda'
p1054
F0.11
sS'sjaia-tirb'
p1055
F0.04
sS'ncrnonup-tirb'
p1056
F0.59
sS'jaia-tirb'
p1057
F0.11
sS'ncrup-apda'
p1058
F1.16
sa(dp1059
S'eastukna-amda'
p1060
F0.42
sS'ncrup-tirb'
p1061
F0.09
sS'ncrup-pnpf'
p1062
F0.1
sS'ncrup-cgsa'
p1063
F1.04
sS'eastukna-boma'
p1064
F0.37
sS'ncrup-boma'
p1065
F6.92
sS'ncrup-ixub'
p1066
F0.95
sS'ncrup-coka'
p1067
F1.58
sS'ncrup-sguj'
p1068
F0.45
sS'ncrup-nktk'
p1069
F0.24
sS'ncrup-ncrnonup'
p1070
F8.58
sS'eastukna-pnqa'
p1071
F0.22
sS'ncrup-jaia'
p1072
F0.84
sS'ncrup-blraexnktk'
p1073
F5.51
sS'eastukna-sjaia'
p1074
F0.02
sS'ncrup-ixma'
p1075
F0.28
sS'ncrup-cbea'
p1076
F0.63
sS'ncrup-goia'
p1077
F0.14
sS'ncrup-hyda'
p1078
F2.8
sS'eastukna-jaia'
p1079
F0.39
sS'ncrup-naga'
p1080
F0.63
sS'ncrup-sjaia'
p1081
F0.3
sS'ncrup-pnqa'
p1082
F3.3
sS'eastukna-ncrnonup'
p1083
F0.85
sS'eastukna-sguj'
p1084
F0.02
sS'ncrup-apda'
p1085
F1.16
sS'ncrup-maaa'
p1086
F5.77
sS'ncrup-amda'
p1087
F2.36
sS'ncrup-snra'
p1088
F0.44
sa(dp1089
S'westup-ncrnonup'
p1090
F1.14
sa(dp1091
S'eastup-ixub'
p1092
F0.15
sS'idra-snra'
p1093
F0.01
sS'westup-ixub'
p1094
F0.05
sS'eastup-snra'
p1095
F0.01
sS'westup-snra'
p1096
F0.06
sa(dp1097
S'maaa-ncrnonup'
p1098
F14.42
sS'maaa-ncrup'
p1099
F4.59
sS'maaa-pnpf'
p1100
F0.19
sS'maaa-eastup'
p1101
F2.41
sS'maaa-eastukna'
p1102
F0.51
sS'maaa-westup'
p1103
F1.07
sS'maaa-ixca'
p1104
F11.940000000000001
sa(dp1105
S'boma-ixca'
p1106
F13.730000000000002
sS'goia-ixca'
p1107
F1.18
sS'pnqa-ixca'
p1108
F12.07
sS'ixub-ixca'
p1109
F1.2200000000000002
sS'nktk-ixca'
p1110
F0.06
sa(dp1111
S'snra-cbea'
p1112
F0.27
sS'ixub-coka'
p1113
F1.46
sS'pnqa-cbea'
p1114
F3.75
sS'pnqa-blraexnktk'
p1115
F13.59
sS'pnqa-coka'
p1116
F3.25
sS'ixub-blraexnktk'
p1117
F0.46
sS'snra-ixma'
p1118
F0.22
sS'snra-blraexnktk'
p1119
F5.29
sS'pnqa-ixma'
p1120
F1.14
sS'snra-coka'
p1121
F0.21
sS'ixub-ixma'
p1122
F0.5
sS'ixub-cbea'
p1123
F0.48
sa(dp1124
S'nktk-eastup'
p1125
F0.1
sS'pnqa-idra'
p1126
F6.38
sS'goia-path'
p1127
F0.26
sS'goia-westup'
p1128
F0.03
sS'goia-eastukna'
p1129
F0.01
sS'goia-eastup'
p1130
F0.5
sS'goia-idra'
p1131
F0.17
sS'nktk-idra'
p1132
F0.06
sS'pnqa-eastukna'
p1133
F0.76
sS'pnqa-westup'
p1134
F0.88
sS'pnqa-eastup'
p1135
F2.93
sS'pnqa-path'
p1136
F0.54
sa(dp1137
S'ixca-maaa'
p1138
F0.15
sS'ixca-naga'
p1139
F0.03
sS'ixca-goia'
p1140
F0.03
sS'ixca-ixub'
p1141
F0.01
sS'ixca-ixma'
p1142
F0.01
sS'ixca-sjaia'
p1143
F0.02
sS'ixca-eastukna'
p1144
F0.0
sS'ixca-guaa'
p1145
F0.02
sS'ixca-jspa'
p1146
F0.0
sS'ixca-pnpf'
p1147
F0.0
sS'ixca-amda'
p1148
F0.12
sS'ixca-coka'
p1149
F0.03
sS'ixca-idra'
p1150
F0.15
sS'ixca-nktk'
p1151
F0.0
sS'ixca-westup'
p1152
F0.04
sS'ixca-sguj'
p1153
F0.01
sS'ixca-ncrup'
p1154
F0.25
sS'ixca-path'
p1155
F0.0
sS'ixca-blraexnktk'
p1156
F0.22
sS'ixca-eastup'
p1157
F0.14
sS'ixca-ccua'
p1158
F0.13
sS'ixca-apda'
p1159
F0.1
sS'ixca-tirb'
p1160
F0.02
sS'ixca-snra'
p1161
F0.01
sS'ixca-ncrnonup'
p1162
F0.79
sS'ixca-jaia'
p1163
F0.1
sS'ixca-ixca'
p1164
F0.55
sS'ixca-hyda'
p1165
F0.12
sS'ixca-orsa'
p1166
F0.0
sS'ixca-pnqa'
p1167
F0.05
sS'ixca-cbea'
p1168
F0.0
sS'ixca-boma'
p1169
F0.56
sa(dp1170
S'ccua-idra'
p1171
F1.13
sS'ccua-sguj'
p1172
F0.53
sS'ccua-boma'
p1173
F4.3
sa(dp1174
S'naga-ixub'
p1175
F0.33
sS'ixub-naga'
p1176
F0.05
sa(dp1177
S'goia-jspa'
p1178
F0.33
sS'naga-jspa'
p1179
F0.05
sS'cgsa-jspa'
p1180
F0.12
sS'ixub-path'
p1181
F0.19
sS'sguj-jspa'
p1182
F0.76
sS'pnqa-jspa'
p1183
F4.04
sS'ixub-jspa'
p1184
F0.04
sS'cgsa-path'
p1185
F0.04
sS'naga-path'
p1186
F0.21
sS'boma-jspa'
p1187
F3.35
sS'snra-jspa'
p1188
F0.24
sS'idra-jspa'
p1189
F0.06
sS'amda-jspa'
p1190
F0.57
sa(dp1191
S'snra-guaa'
p1192
F0.46
sS'hyda-guaa'
p1193
F0.35
sS'apda-guaa'
p1194
F0.12
sS'jaia-guaa'
p1195
F0.07
sS'orsa-guaa'
p1196
F0.24
sS'ccua-guaa'
p1197
F4.18
sS'jspa-guaa'
p1198
F0.34
sS'ixma-guaa'
p1199
F0.0
sS'maaa-guaa'
p1200
F0.6
sS'ixca-guaa'
p1201
F1.4900000000000002
sS'eastup-guaa'
p1202
F0.09
sS'idra-guaa'
p1203
F0.04
sS'eastukna-guaa'
p1204
F0.07
sS'westup-guaa'
p1205
F0.03
sS'tirb-guaa'
p1206
F0.0
sS'goia-guaa'
p1207
F0.2
sS'coka-guaa'
p1208
F0.05
sS'naga-guaa'
p1209
F0.23
sS'sguj-guaa'
p1210
F0.29
sS'amda-guaa'
p1211
F0.38
sS'blraexnktk-guaa'
p1212
F0.59
sS'ixub-guaa'
p1213
F0.01
sS'path-guaa'
p1214
F0.31
sS'ncrnonup-guaa'
p1215
F3.11
sS'pnqa-guaa'
p1216
F1.18
sS'cbea-guaa'
p1217
F0.03
sS'boma-guaa'
p1218
F1.92
sS'ncrup-guaa'
p1219
F0.81
sa(dp1220
S'westup-boma'
p1221
F2.43
sS'eastup-boma'
p1222
F0.94
sS'path-sguj'
p1223
F0.01
sS'idra-boma'
p1224
F0.92
sS'path-boma'
p1225
F0.21
sS'idra-guaa'
p1226
F0.04
sS'idra-ccua'
p1227
F0.41
sS'guaa-boma'
p1228
F0.05
sS'westup-sguj'
p1229
F0.16
sS'idra-sguj'
p1230
F0.75
sS'eastup-sguj'
p1231
F0.35
sa(dp1232
S'maaa-ixma'
p1233
F1.5
sS'tirb-ixma'
p1234
F0.0
sS'maaa-cbea'
p1235
F2.74
sS'maaa-coka'
p1236
F4.83
sa(dp1237
S'blraexnktk-eastup'
p1238
F3.59
sS'goia-path'
p1239
F0.26
sS'cgsa-eastup'
p1240
F0.07
sS'boma-eastukna'
p1241
F0.31
sS'snra-eastup'
p1242
F0.53
sS'cbea-eastup'
p1243
F3.4
sS'naga-eastup'
p1244
F0.33
sS'naga-eastukna'
p1245
F0.03
sS'goia-eastup'
p1246
F0.5
sS'sguj-eastup'
p1247
F2.37
sS'goia-eastukna'
p1248
F0.01
sS'amda-eastukna'
p1249
F0.39
sS'boma-eastup'
p1250
F5.78
sS'pnqa-eastukna'
p1251
F0.76
sS'coka-eastup'
p1252
F0.32
sS'snra-path'
p1253
F0.2
sS'snra-eastukna'
p1254
F0.09
sS'ixma-eastup'
p1255
F0.06
sS'blraexnktk-eastukna'
p1256
F0.42
sS'nktk-eastup'
p1257
F0.1
sS'tirb-eastup'
p1258
F0.0
sS'amda-eastup'
p1259
F1.59
sS'amda-path'
p1260
F0.79
sS'pnqa-path'
p1261
F0.54
sS'sguj-path'
p1262
F0.67
sS'ixub-eastukna'
p1263
F0.02
sS'idra-eastup'
p1264
F0.24
sS'pnqa-eastup'
p1265
F2.93
sS'ixub-eastup'
p1266
F0.66
sS'boma-path'
p1267
F1.8
sS'hyda-eastup'
p1268
F1.02
sS'hyda-eastukna'
p1269
F0.07
sS'apda-eastukna'
p1270
F0.24
sS'idra-path'
p1271
F0.04
sS'sguj-eastukna'
p1272
F0.19
sS'apda-eastup'
p1273
F0.16
sS'coka-eastukna'
p1274
F0.01
sa(dp1275
S'boma-westup'
p1276
F1.73
sS'ixub-westup'
p1277
F0.54
sS'goia-westup'
p1278
F0.03
sS'idra-westup'
p1279
F0.01
sS'naga-westup'
p1280
F0.09
sS'pnqa-westup'
p1281
F0.88
sS'sguj-westup'
p1282
F0.36
sS'snra-westup'
p1283
F0.18
sS'amda-westup'
p1284
F0.37
sa(dp1285
S'amda-coka'
p1286
F0.85
sS'amda-cbea'
p1287
F1.54
sS'sjaia-ixma'
p1288
F0.01
sS'amda-blraexnktk'
p1289
F7.59
sS'sjaia-blraexnktk'
p1290
F0.14
sS'amda-ixma'
p1291
F0.96
sS'sjaia-coka'
p1292
F0.01
sa(dp1293
S'orsa-tirb'
p1294
F0.01
sS'apda-westup'
p1295
F0.01
sS'path-hyda'
p1296
F0.16
sS'apda-ncrup'
p1297
F0.12
sS'guaa-hyda'
p1298
F0.05
sS'apda-ixub'
p1299
F0.27
sS'apda-amda'
p1300
F1.22
sS'apda-sguj'
p1301
F0.07
sS'apda-pnqa'
p1302
F0.48
sS'apda-boma'
p1303
F3.95
sS'ccua-tirb'
p1304
F0.07
sS'orsa-hyda'
p1305
F0.09
sS'apda-naga'
p1306
F0.16
sS'apda-jaia'
p1307
F0.04
sS'apda-ncrnonup'
p1308
F1.5
sS'apda-sjaia'
p1309
F0.04
sS'apda-goia'
p1310
F0.04
sS'jspa-hyda'
p1311
F0.14
sS'apda-cgsa'
p1312
F0.08
sS'apda-ixca'
p1313
F2.2499999999999996
sS'apda-tirb'
p1314
F0.22
sS'ccua-hyda'
p1315
F1.6
sS'apda-snra'
p1316
F0.13
sS'apda-eastukna'
p1317
F0.24
sS'apda-idra'
p1318
F0.22
sS'apda-eastup'
p1319
F0.16
sS'apda-hyda'
p1320
F4.12
sS'apda-pnpf'
p1321
F0.01
sa(dp1322
S'coka-cbea'
p1323
F0.17
sa(dp1324
S'westup-ncrup'
p1325
F0.57
sS'westup-eastukna'
p1326
F0.07
sS'westup-ixca'
p1327
F0.31
sa(dp1328
S'ncrnonup-ixca'
p1329
F4.11
sS'guaa-ixca'
p1330
F0.02
sS'path-ixca'
p1331
F0.01
sS'westup-ixca'
p1332
F0.06
sS'amda-ixca'
p1333
F1.38
sS'cbea-ixca'
p1334
F0.03
sS'ccua-ixca'
p1335
F0.19
sS'sjaia-ixca'
p1336
F0.01
sS'jaia-ixca'
p1337
F0.12
sS'ncrup-ixca'
p1338
F0.64
sS'goia-ixca'
p1339
F0.24
sS'idra-ixca'
p1340
F0.15
sS'ixub-ixca'
p1341
F0.01
sS'boma-ixca'
p1342
F2.52
sS'jspa-ixca'
p1343
F0.09
sS'naga-ixca'
p1344
F0.0
sS'eastup-ixca'
p1345
F0.21
sS'apda-ixca'
p1346
F0.02
sS'cgsa-ixca'
p1347
F0.04
sS'sguj-ixca'
p1348
F0.43
sS'eastukna-ixca'
p1349
F0.17
sS'blraexnktk-ixca'
p1350
F1.8
sS'pnpf-ixca'
p1351
F0.02
sS'snra-ixca'
p1352
F0.3
sS'ixca-ixca'
p1353
F1.03
sS'hyda-ixca'
p1354
F0.36
sS'orsa-ixca'
p1355
F0.01
sS'pnqa-ixca'
p1356
F1.68
sS'coka-ixca'
p1357
F0.0
sS'maaa-ixca'
p1358
F1.85
sa(dp1359
S'orsa-snra'
p1360
F0.03
sS'ncrnonup-snra'
p1361
F0.62
sS'boma-snra'
p1362
F3.52
sS'coka-ixub'
p1363
F0.0
sS'cbea-ixub'
p1364
F0.16
sS'coka-snra'
p1365
F0.1
sS'ncrup-snra'
p1366
F0.44
sS'jspa-snra'
p1367
F0.0
sS'amda-snra'
p1368
F0.22
sS'blraexnktk-snra'
p1369
F0.95
sS'blraexnktk-ixub'
p1370
F0.5
sS'ncrnonup-ixub'
p1371
F0.7
sS'pnpf-snra'
p1372
F0.0
sS'ixca-snra'
p1373
F0.47000000000000003
sS'ncrup-ixub'
p1374
F0.95
sa(dp1375
S'ixub-boma'
p1376
F0.44
sS'naga-sguj'
p1377
F0.35
sS'naga-boma'
p1378
F1.69
sa(dp1379
S'sjaia-maaa'
p1380
F0.09
sS'amda-maaa'
p1381
F4.35
sS'eastup-maaa'
p1382
F0.45
sS'cgsa-maaa'
p1383
F0.16
sS'eastukna-maaa'
p1384
F0.53
sS'idra-maaa'
p1385
F0.61
sS'westup-maaa'
p1386
F0.79
sa(dp1387
S'orsa-eastup'
p1388
F0.03
sS'orsa-eastukna'
p1389
F0.12
sS'orsa-ixca'
p1390
F0.03
sS'orsa-ncrup'
p1391
F0.21
sS'jspa-ncrup'
p1392
F0.02
sS'jspa-westup'
p1393
F0.0
sS'jspa-eastup'
p1394
F0.12
sS'jspa-ixca'
p1395
F0.24000000000000002
sS'jspa-eastukna'
p1396
F0.29
sa(dp1397
S'ixca-sguj'
p1398
F1.7999999999999998
sa(dp1399
S'pnpf-pnqa'
p1400
F0.16
sS'ncrup-nktk'
p1401
F0.24
sS'pnpf-nktk'
p1402
F0.25
sS'ncrnonup-pnqa'
p1403
F10.21
sS'pnpf-goia'
p1404
F0.05
sS'eastukna-pnqa'
p1405
F0.22
sS'ncrup-pnqa'
p1406
F3.3
sS'ncrnonup-goia'
p1407
F0.7
sS'ncrup-goia'
p1408
F0.14
sS'ncrnonup-nktk'
p1409
F0.43
sa(dp1410
S'westup-ixub'
p1411
F0.05
sS'westup-idra'
p1412
F0.18
sS'westup-tirb'
p1413
F0.0
sS'westup-cgsa'
p1414
F0.09
sS'westup-amda'
p1415
F0.38
sS'westup-hyda'
p1416
F0.91
sS'westup-ixma'
p1417
F0.16
sS'westup-naga'
p1418
F0.14
sS'westup-cbea'
p1419
F1.79
sS'westup-snra'
p1420
F0.06
sS'westup-apda'
p1421
F0.17
sS'westup-goia'
p1422
F0.09
sS'westup-coka'
p1423
F0.66
sS'westup-sguj'
p1424
F0.16
sS'westup-pnqa'
p1425
F0.66
sS'westup-blraexnktk'
p1426
F3.48
sS'westup-boma'
p1427
F2.43
sS'westup-maaa'
p1428
F0.79
sa(dp1429
S'sguj-sjaia'
p1430
F0.23
sS'blraexnktk-sjaia'
p1431
F0.38
sS'maaa-sjaia'
p1432
F0.7
sS'boma-sjaia'
p1433
F1.26
sS'ixub-sjaia'
p1434
F0.06
sS'cgsa-sjaia'
p1435
F0.0
sS'snra-sjaia'
p1436
F0.35
sS'pnqa-sjaia'
p1437
F1.59
sS'amda-sjaia'
p1438
F0.31
sS'idra-sjaia'
p1439
F0.07
sS'coka-sjaia'
p1440
F0.01
sS'goia-sjaia'
p1441
F0.04
sS'cbea-sjaia'
p1442
F0.09
sa(dp1443
S'ixub-ncrnonup'
p1444
F0.18
sS'ixub-ncrup'
p1445
F0.22
sS'snra-ncrnonup'
p1446
F1.31
sS'snra-pnpf'
p1447
F0.0
sS'snra-ncrup'
p1448
F0.58
sS'snra-ixca'
p1449
F1.08
sa(dp1450
S'goia-pnpf'
p1451
F0.0
sS'nktk-ncrnonup'
p1452
F0.44
sS'goia-ncrup'
p1453
F0.19
sS'pnqa-ncrnonup'
p1454
F22.53
sS'pnqa-ncrup'
p1455
F4.42
sS'nktk-ncrup'
p1456
F0.02
sS'pnqa-pnpf'
p1457
F0.5
sS'goia-ncrnonup'
p1458
F0.41
sa(dp1459
S'jaia-ixca'
p1460
F0.68
sa(dp1461
S'orsa-tirb'
p1462
F0.01
sS'path-cbea'
p1463
F0.01
sS'path-hyda'
p1464
F0.16
sS'jspa-maaa'
p1465
F0.27
sS'path-blraexnktk'
p1466
F0.1
sS'jspa-ixma'
p1467
F0.04
sS'path-ixma'
p1468
F0.01
sS'path-apda'
p1469
F0.14
sS'orsa-hyda'
p1470
F0.09
sS'orsa-ixma'
p1471
F0.04
sS'jspa-coka'
p1472
F0.04
sS'jspa-cbea'
p1473
F0.09
sS'orsa-maaa'
p1474
F0.09
sS'jspa-hyda'
p1475
F0.14
sS'orsa-nktk'
p1476
F0.0
sS'jspa-blraexnktk'
p1477
F0.28
sS'jspa-apda'
p1478
F0.07
sS'orsa-apda'
p1479
F0.04
sS'orsa-coka'
p1480
F0.02
sS'orsa-cbea'
p1481
F0.01
sS'path-coka'
p1482
F0.12
sS'orsa-blraexnktk'
p1483
F0.09
sS'path-maaa'
p1484
F0.11
sS'path-nktk'
p1485
F0.0
sa(dp1486
S'hyda-maaa'
p1487
F2.55
sS'tirb-maaa'
p1488
F0.12
sS'naga-maaa'
p1489
F0.48
sa(dp1490
S'maaa-path'
p1491
F0.67
sS'maaa-jspa'
p1492
F1.26
sS'maaa-orsa'
p1493
F0.84
sS'maaa-ccua'
p1494
F4.28
sS'maaa-apda'
p1495
F2.68
sS'maaa-guaa'
p1496
F0.6
sa(dp1497
S'orsa-ccua'
p1498
F0.44
sS'orsa-guaa'
p1499
F0.24
sS'naga-ccua'
p1500
F1.3
sS'cgsa-ccua'
p1501
F0.07
sS'naga-guaa'
p1502
F0.23
sa(dp1503
S'coka-idra'
p1504
F0.64
sS'ixma-idra'
p1505
F0.45
sS'blraexnktk-eastup'
p1506
F3.59
sS'coka-eastukna'
p1507
F0.01
sS'ixma-eastup'
p1508
F0.06
sS'coka-eastup'
p1509
F0.32
sS'blraexnktk-idra'
p1510
F2.58
sS'cbea-idra'
p1511
F0.74
sS'cbea-eastup'
p1512
F3.4
sS'blraexnktk-eastukna'
p1513
F0.42
sa(dp1514
S'maaa-jaia'
p1515
F3.38
sS'cbea-jaia'
p1516
F0.9
sS'coka-jaia'
p1517
F0.39
sS'ixma-jaia'
p1518
F0.03
sS'blraexnktk-jaia'
p1519
F10.98
sa(dp1520
S'jaia-eastukna'
p1521
F0.05
sS'orsa-eastukna'
p1522
F0.12
sS'boma-eastukna'
p1523
F0.31
sS'ixca-eastukna'
p1524
F0.5
sS'ncrup-eastukna'
p1525
F0.51
sS'naga-eastukna'
p1526
F0.03
sS'goia-eastukna'
p1527
F0.01
sS'amda-eastukna'
p1528
F0.39
sS'pnqa-eastukna'
p1529
F0.76
sS'snra-eastukna'
p1530
F0.09
sS'blraexnktk-eastukna'
p1531
F0.42
sS'eastup-eastukna'
p1532
F0.28
sS'ixub-eastukna'
p1533
F0.02
sS'ccua-eastukna'
p1534
F0.01
sS'pnpf-eastukna'
p1535
F0.03
sS'westup-eastukna'
p1536
F0.07
sS'jspa-eastukna'
p1537
F0.29
sS'coka-eastukna'
p1538
F0.01
sS'hyda-eastukna'
p1539
F0.07
sS'apda-eastukna'
p1540
F0.24
sS'sguj-eastukna'
p1541
F0.19
sS'maaa-eastukna'
p1542
F0.51
sS'ncrnonup-eastukna'
p1543
F1.08
sa(dp1544
S'boma-ncrup'
p1545
F5.31
sS'boma-ncrnonup'
p1546
F25.24
sS'boma-pnpf'
p1547
F0.49
sa(dp1548
S'ncrnonup-ixca'
p1549
F1.67
sS'path-ixca'
p1550
F0.0
sS'westup-ixca'
p1551
F0.05
sS'orsa-ixca'
p1552
F0.01
sS'cbea-ixca'
p1553
F0.21
sS'ccua-ixca'
p1554
F0.27
sS'jaia-ixca'
p1555
F0.03
sS'ncrup-ixca'
p1556
F0.43
sS'goia-ixca'
p1557
F0.16
sS'idra-ixca'
p1558
F0.02
sS'ixma-ixca'
p1559
F0.0
sS'ixub-ixca'
p1560
F0.52
sS'boma-ixca'
p1561
F2.38
sS'jspa-ixca'
p1562
F0.0
sS'naga-ixca'
p1563
F0.1
sS'eastup-ixca'
p1564
F0.1
sS'apda-ixca'
p1565
F1.7
sS'nktk-ixca'
p1566
F0.06
sS'sguj-ixca'
p1567
F0.13
sS'pnpf-ixca'
p1568
F0.05
sS'blraexnktk-ixca'
p1569
F1.25
sS'snra-ixca'
p1570
F0.05
sS'ixca-ixca'
p1571
F0.2
sS'hyda-ixca'
p1572
F0.95
sS'amda-ixca'
p1573
F1.13
sS'pnqa-ixca'
p1574
F2.14
sS'coka-ixca'
p1575
F0.12
sS'maaa-ixca'
p1576
F3.98
sa(dp1577
S'amda-jaia'
p1578
F1.86
sS'naga-jaia'
p1579
F0.09
sS'cgsa-jaia'
p1580
F0.01
sS'naga-sjaia'
p1581
F0.0
sS'idra-jaia'
p1582
F0.24
sa(dp1583
S'ixub-apda'
p1584
F0.04
sS'pnqa-hyda'
p1585
F8.08
sS'sguj-tirb'
p1586
F0.23
sS'sguj-hyda'
p1587
F1.88
sS'sguj-apda'
p1588
F0.43
sS'snra-tirb'
p1589
F0.03
sS'goia-apda'
p1590
F0.22
sS'snra-hyda'
p1591
F0.87
sS'pnqa-tirb'
p1592
F0.25
sS'pnqa-apda'
p1593
F2.37
sS'ixub-tirb'
p1594
F0.0
sS'goia-tirb'
p1595
F0.05
sS'ixub-hyda'
p1596
F0.15
sS'goia-hyda'
p1597
F1.0
sS'snra-apda'
p1598
F0.51
sa(dp1599
S'tirb-guaa'
p1600
F0.0
sS'apda-ccua'
p1601
F0.54
sS'hyda-guaa'
p1602
F0.35
sS'apda-guaa'
p1603
F0.12
sS'hyda-ccua'
p1604
F2.34
sS'maaa-ccua'
p1605
F4.28
sS'maaa-guaa'
p1606
F0.6
sS'tirb-ccua'
p1607
F0.03
sa(dp1608
S'jspa-westup'
p1609
F0.0
sS'eastup-westup'
p1610
F1.76
sS'path-westup'
p1611
F0.0
sS'ccua-westup'
p1612
F0.28
sa(dp1613
S'ixub-snra'
p1614
F0.0
sS'snra-ixub'
p1615
F0.06
sa(dp1616
S'cgsa-goia'
p1617
F0.0
sS'ixca-goia'
p1618
F0.7200000000000001
sS'naga-goia'
p1619
F0.02
sS'westup-goia'
p1620
F0.09
sS'jaia-goia'
p1621
F0.01
sS'hyda-goia'
p1622
F0.4
sS'idra-goia'
p1623
F0.23
sS'boma-goia'
p1624
F3.33
sS'pnqa-goia'
p1625
F2.37
sS'ixub-goia'
p1626
F0.02
sS'pnpf-goia'
p1627
F0.05
sS'sjaia-goia'
p1628
F0.02
sS'ccua-goia'
p1629
F0.18
sS'apda-goia'
p1630
F0.04
sS'snra-goia'
p1631
F0.17
sS'tirb-goia'
p1632
F0.09
sS'ncrup-goia'
p1633
F0.14
sS'amda-goia'
p1634
F0.22
sS'sguj-goia'
p1635
F0.3
sS'ncrnonup-goia'
p1636
F0.7
sS'path-goia'
p1637
F0.0
sS'orsa-goia'
p1638
F0.01
sS'eastup-goia'
p1639
F0.03
sa(dp1640
S'sguj-ixca'
p1641
F1.9000000000000001
sa(dp1642
S'ncrnonup-ixca'
p1643
F1.42
sS'guaa-ixca'
p1644
F0.0
sS'path-ixca'
p1645
F0.02
sS'westup-ixca'
p1646
F0.02
sS'amda-ixca'
p1647
F0.17
sS'cbea-ixca'
p1648
F0.01
sS'ccua-ixca'
p1649
F0.72
sS'sjaia-ixca'
p1650
F0.01
sS'jaia-ixca'
p1651
F0.17
sS'ncrup-ixca'
p1652
F0.58
sS'goia-ixca'
p1653
F0.0
sS'idra-ixca'
p1654
F0.08
sS'ixma-ixca'
p1655
F0.04
sS'ixub-ixca'
p1656
F0.05
sS'boma-ixca'
p1657
F1.26
sS'jspa-ixca'
p1658
F0.0
sS'naga-ixca'
p1659
F0.12
sS'eastup-ixca'
p1660
F0.16
sS'apda-ixca'
p1661
F0.01
sS'sguj-ixca'
p1662
F0.27
sS'eastukna-ixca'
p1663
F0.01
sS'blraexnktk-ixca'
p1664
F1.51
sS'pnpf-ixca'
p1665
F0.01
sS'snra-ixca'
p1666
F0.09
sS'ixca-ixca'
p1667
F0.61
sS'hyda-ixca'
p1668
F0.11
sS'orsa-ixca'
p1669
F0.0
sS'pnqa-ixca'
p1670
F1.41
sS'coka-ixca'
p1671
F0.0
sS'maaa-ixca'
p1672
F1.15
sa(dp1673
S'coka-maaa'
p1674
F0.94
sS'coka-ixma'
p1675
F0.4
sa(dp1676
S'sguj-pnpf'
p1677
F0.09
sS'sguj-ncrup'
p1678
F0.78
sS'amda-ixca'
p1679
F4.61
sS'amda-ncrup'
p1680
F0.94
sS'sguj-ncrnonup'
p1681
F3.76
sS'amda-ncrnonup'
p1682
F5.96
sS'amda-pnpf'
p1683
F0.06
sa(dp1684
S'ncrnonup-sguj'
p1685
F2.07
sS'ncrup-sguj'
p1686
F0.45
sS'pnpf-sguj'
p1687
F0.17
sS'eastukna-sguj'
p1688
F0.02
sa(dp1689
S'sguj-coka'
p1690
F2.65
sS'apda-coka'
p1691
F0.56
sS'westup-coka'
p1692
F0.66
sS'goia-coka'
p1693
F0.3
sS'jaia-coka'
p1694
F0.06
sS'sjaia-coka'
p1695
F0.01
sS'naga-coka'
p1696
F0.33
sS'ncrup-coka'
p1697
F1.58
sS'eastup-coka'
p1698
F0.07
sS'nktk-coka'
p1699
F0.17
sS'boma-coka'
p1700
F5.86
sS'ixca-coka'
p1701
F2.0999999999999996
sS'jspa-coka'
p1702
F0.04
sS'hyda-coka'
p1703
F0.85
sS'pnqa-coka'
p1704
F3.25
sS'pnpf-coka'
p1705
F0.04
sS'blraexnktk-coka'
p1706
F7.15
sS'snra-coka'
p1707
F0.21
sS'eastukna-coka'
p1708
F0.0
sS'ixub-coka'
p1709
F1.46
sS'amda-coka'
p1710
F0.85
sS'orsa-coka'
p1711
F0.02
sS'ccua-coka'
p1712
F1.12
sS'cgsa-coka'
p1713
F0.0
sS'path-coka'
p1714
F0.12
sS'idra-coka'
p1715
F0.08
sS'ncrnonup-coka'
p1716
F4.76
sS'guaa-coka'
p1717
F0.01
sa(dp1718
S'maaa-hyda'
p1719
F7.4
sS'maaa-tirb'
p1720
F0.54
sa(dp1721
S'maaa-idra'
p1722
F2.83
sS'maaa-naga'
p1723
F0.84
sS'maaa-amda'
p1724
F6.62
sS'maaa-cgsa'
p1725
F2.11
sa(dp1726
S'sguj-jaia'
p1727
F0.72
sa(dp1728
S'jspa-sguj'
p1729
F0.02
sS'path-naga'
p1730
F0.02
sS'jspa-amda'
p1731
F0.06
sS'jspa-snra'
p1732
F0.0
sS'path-cgsa'
p1733
F0.2
sS'jspa-boma'
p1734
F0.25
sS'jspa-pnqa'
p1735
F0.37
sS'jspa-naga'
p1736
F0.01
sS'jspa-cgsa'
p1737
F0.17
sS'jspa-idra'
p1738
F0.03
sS'jspa-ixub'
p1739
F0.7
sa(dp1740
S'coka-pnqa'
p1741
F0.62
sS'ixma-pnqa'
p1742
F0.07
sS'blraexnktk-pnqa'
p1743
F5.48
sS'cbea-pnqa'
p1744
F2.35
sa(dp1745
S'ixca-ixma'
p1746
F1.6800000000000004
sS'ixca-coka'
p1747
F2.0999999999999996
sS'ixca-cbea'
p1748
F0.6900000000000001
sS'ixca-blraexnktk'
p1749
F11.110000000000001
sa(dp1750
S'maaa-jaia'
p1751
F3.38
sS'maaa-blraexnktk'
p1752
F8.11
sS'maaa-sjaia'
p1753
F0.7
sS'maaa-nktk'
p1754
F0.66
sS'maaa-sguj'
p1755
F1.59
sS'maaa-goia'
p1756
F1.38
sa(dp1757
S'cbea-cgsa'
p1758
F0.16
sS'nktk-hyda'
p1759
F0.02
sS'coka-tirb'
p1760
F0.1
sS'blraexnktk-naga'
p1761
F0.67
sS'coka-hyda'
p1762
F1.43
sS'blraexnktk-cgsa'
p1763
F0.65
sS'coka-naga'
p1764
F0.01
sS'ixma-hyda'
p1765
F0.16
sS'cbea-tirb'
p1766
F0.03
sS'nktk-tirb'
p1767
F0.02
sS'coka-cgsa'
p1768
F0.02
sS'cbea-naga'
p1769
F0.1
sS'blraexnktk-hyda'
p1770
F8.61
sS'cbea-hyda'
p1771
F0.86
sS'ixma-naga'
p1772
F0.05
sS'blraexnktk-tirb'
p1773
F0.61
sa(dp1774
S'ixca-maaa'
p1775
F1.14
sS'ixca-naga'
p1776
F0.1
sS'ixca-goia'
p1777
F0.27
sS'ixca-ixub'
p1778
F0.06
sS'ixca-ixma'
p1779
F1.09
sS'ixca-sjaia'
p1780
F0.14
sS'ixca-eastukna'
p1781
F0.12
sS'ixca-guaa'
p1782
F1.06
sS'ixca-jspa'
p1783
F0.27
sS'ixca-pnpf'
p1784
F0.01
sS'ixca-amda'
p1785
F1.1
sS'ixca-coka'
p1786
F0.76
sS'ixca-idra'
p1787
F0.52
sS'ixca-nktk'
p1788
F0.06
sS'ixca-cgsa'
p1789
F0.32
sS'ixca-sguj'
p1790
F0.32
sS'ixca-ncrup'
p1791
F0.36
sS'ixca-blraexnktk'
p1792
F0.92
sS'ixca-eastup'
p1793
F1.12
sS'ixca-ccua'
p1794
F1.21
sS'ixca-apda'
p1795
F0.26
sS'ixca-tirb'
p1796
F0.12
sS'ixca-snra'
p1797
F0.15
sS'ixca-ncrnonup'
p1798
F0.85
sS'ixca-jaia'
p1799
F0.65
sS'ixca-ixca'
p1800
F2.1599999999999997
sS'ixca-hyda'
p1801
F0.96
sS'ixca-westup'
p1802
F0.11
sS'ixca-orsa'
p1803
F0.28
sS'ixca-pnqa'
p1804
F0.49
sS'ixca-cbea'
p1805
F0.54
sS'ixca-boma'
p1806
F1.64
sa(dp1807
S'sjaia-ixca'
p1808
F0.02
sS'sjaia-ncrnonup'
p1809
F0.19
sS'sjaia-ccua'
p1810
F0.02
sS'sjaia-westup'
p1811
F0.03
sS'sjaia-ncrup'
p1812
F0.07
sS'sjaia-hyda'
p1813
F0.15
sS'sjaia-apda'
p1814
F0.11
sS'sjaia-tirb'
p1815
F0.04
sS'sjaia-jspa'
p1816
F0.07
sS'sjaia-pnpf'
p1817
F0.0
sS'sjaia-eastup'
p1818
F0.01
sa(dp1819
S'boma-sjaia'
p1820
F1.26
sS'ixub-sjaia'
p1821
F0.06
sS'boma-amda'
p1822
F12.89
sS'snra-sjaia'
p1823
F0.35
sS'snra-amda'
p1824
F0.33
sS'ixub-amda'
p1825
F0.07
sa(dp1826
S'path-ixma'
p1827
F0.01
sS'path-hyda'
p1828
F0.16
sS'jspa-maaa'
p1829
F0.27
sS'ncrnonup-orsa'
p1830
F3.38
sS'path-blraexnktk'
p1831
F0.1
sS'jspa-ixma'
p1832
F0.04
sS'path-cbea'
p1833
F0.01
sS'path-coka'
p1834
F0.12
sS'jaia-orsa'
p1835
F0.2
sS'ixca-orsa'
p1836
F1.3100000000000003
sS'path-orsa'
p1837
F0.11
sS'eastup-orsa'
p1838
F0.23
sS'jspa-coka'
p1839
F0.04
sS'jspa-cbea'
p1840
F0.09
sS'jspa-hyda'
p1841
F0.14
sS'jspa-blraexnktk'
p1842
F0.28
sS'jspa-apda'
p1843
F0.07
sS'jspa-orsa'
p1844
F0.21
sS'path-maaa'
p1845
F0.11
sS'pnpf-orsa'
p1846
F0.17
sS'path-apda'
p1847
F0.14
sS'ncrup-orsa'
p1848
F1.18
sS'westup-orsa'
p1849
F0.09
sS'path-nktk'
p1850
F0.0
sS'eastukna-orsa'
p1851
F0.37
sa(dp1852
S'cgsa-orsa'
p1853
F0.09
sS'snra-orsa'
p1854
F0.33
sS'idra-orsa'
p1855
F0.71
sS'ixub-orsa'
p1856
F0.17
sS'goia-orsa'
p1857
F0.53
sS'boma-orsa'
p1858
F2.6
sS'naga-guaa'
p1859
F0.23
sS'naga-orsa'
p1860
F0.27
sS'amda-orsa'
p1861
F0.75
sS'sguj-orsa'
p1862
F1.16
sS'pnqa-orsa'
p1863
F1.87
sS'cgsa-ccua'
p1864
F0.07
sS'naga-ccua'
p1865
F1.3
sa(dp1866
S'pnpf-jaia'
p1867
F0.0
sS'path-jaia'
p1868
F0.0
sS'ixca-jaia'
p1869
F1.7300000000000002
sS'westup-jaia'
p1870
F0.13
sS'ncrnonup-jaia'
p1871
F8.07
sS'apda-jaia'
p1872
F0.04
sS'hyda-jaia'
p1873
F0.5
sS'guaa-jaia'
p1874
F0.0
sS'orsa-jaia'
p1875
F0.02
sS'eastup-jaia'
p1876
F0.63
sS'eastukna-jaia'
p1877
F0.39
sS'ncrup-jaia'
p1878
F0.84
sS'ccua-jaia'
p1879
F1.26
sS'tirb-jaia'
p1880
F0.05
sS'jspa-jaia'
p1881
F0.02
sa(dp1882
S'ixub-pnqa'
p1883
F0.24
sS'snra-maaa'
p1884
F2.01
sS'ixub-maaa'
p1885
F0.63
sS'snra-pnqa'
p1886
F0.45
sS'snra-ixma'
p1887
F0.22
sS'snra-guaa'
p1888
F0.46
sS'ixub-jaia'
p1889
F0.01
sS'snra-ccua'
p1890
F0.85
sS'snra-apda'
p1891
F0.51
sS'ixub-goia'
p1892
F0.02
sS'snra-tirb'
p1893
F0.03
sS'ixub-blraexnktk'
p1894
F0.46
sS'ixub-tirb'
p1895
F0.0
sS'snra-coka'
p1896
F0.21
sS'ixub-cbea'
p1897
F0.48
sS'ixub-apda'
p1898
F0.04
sS'snra-cbea'
p1899
F0.27
sS'snra-goia'
p1900
F0.17
sS'snra-hyda'
p1901
F0.87
sS'snra-blraexnktk'
p1902
F5.29
sS'snra-naga'
p1903
F0.09
sS'ixub-hyda'
p1904
F0.15
sS'ixub-ixma'
p1905
F0.5
sS'snra-jaia'
p1906
F0.8
sS'ixub-coka'
p1907
F1.46
sS'snra-nktk'
p1908
F0.0
sS'ixub-nktk'
p1909
F0.12
sa(dp1910
S'ixca-maaa'
p1911
F2.75
sS'ixca-naga'
p1912
F0.21
sS'ixca-goia'
p1913
F0.05
sS'ixca-ixub'
p1914
F0.13
sS'ixca-ixma'
p1915
F0.11
sS'ixca-sjaia'
p1916
F0.27
sS'ixca-eastukna'
p1917
F0.0
sS'ixca-guaa'
p1918
F0.04
sS'ixca-jspa'
p1919
F0.33
sS'ixca-pnpf'
p1920
F0.02
sS'ixca-amda'
p1921
F0.33
sS'ixca-coka'
p1922
F0.57
sS'ixca-idra'
p1923
F0.57
sS'ixca-nktk'
p1924
F0.02
sS'ixca-cgsa'
p1925
F0.25
sS'ixca-sguj'
p1926
F1.18
sS'ixca-ncrup'
p1927
F0.11
sS'ixca-path'
p1928
F0.54
sS'ixca-blraexnktk'
p1929
F1.11
sS'ixca-eastup'
p1930
F1.09
sS'ixca-ccua'
p1931
F2.33
sS'ixca-apda'
p1932
F0.57
sS'ixca-tirb'
p1933
F0.05
sS'ixca-ncrnonup'
p1934
F4.53
sS'ixca-jaia'
p1935
F0.29
sS'ixca-ixca'
p1936
F0.54
sS'ixca-hyda'
p1937
F0.91
sS'ixca-westup'
p1938
F0.07
sS'ixca-orsa'
p1939
F0.16
sS'ixca-pnqa'
p1940
F1.1
sS'ixca-cbea'
p1941
F0.06
sS'ixca-boma'
p1942
F1.27
sa(dp1943
S'blraexnktk-sjaia'
p1944
F0.38
sS'maaa-sjaia'
p1945
F0.7
sS'coka-amda'
p1946
F0.27
sS'coka-sjaia'
p1947
F0.01
sS'cbea-amda'
p1948
F3.96
sS'blraexnktk-amda'
p1949
F7.47
sS'ixma-amda'
p1950
F0.02
sS'cbea-sjaia'
p1951
F0.09
sa(dp1952
S'sguj-ixma'
p1953
F0.49
sS'sguj-coka'
p1954
F2.65
sS'sguj-cbea'
p1955
F0.73
sS'sguj-blraexnktk'
p1956
F3.3
sa(dp1957
S'path-blraexnktk'
p1958
F0.1
sS'path-ccua'
p1959
F0.53
sS'path-naga'
p1960
F0.02
sS'path-ixma'
p1961
F0.01
sS'path-coka'
p1962
F0.12
sS'path-orsa'
p1963
F0.11
sS'path-guaa'
p1964
F0.31
sS'path-hyda'
p1965
F0.16
sS'path-jspa'
p1966
F0.24
sS'path-apda'
p1967
F0.14
sS'path-maaa'
p1968
F0.11
sS'path-cbea'
p1969
F0.01
sS'path-nktk'
p1970
F0.0
sS'path-cgsa'
p1971
F0.2
sa(dp1972
S'idra-guaa'
p1973
F0.04
sS'sguj-ccua'
p1974
F4.06
sS'sguj-guaa'
p1975
F0.29
sS'idra-ccua'
p1976
F0.41
sS'boma-ccua'
p1977
F16.55
sS'boma-guaa'
p1978
F1.92
sa(dp1979
S'sjaia-jaia'
p1980
F0.32
sa(dp1981
S'blraexnktk-ncrup'
p1982
F3.11
sS'coka-pnpf'
p1983
F0.01
sS'ixma-ncrnonup'
p1984
F0.38
sS'coka-ncrup'
p1985
F0.26
sS'cbea-ncrup'
p1986
F2.18
sS'blraexnktk-ncrnonup'
p1987
F16.36
sS'blraexnktk-pnpf'
p1988
F0.66
sS'ixma-westup'
p1989
F0.01
sS'ixma-ncrup'
p1990
F0.16
sS'cbea-westup'
p1991
F0.0
sS'cbea-ncrnonup'
p1992
F4.51
sS'coka-westup'
p1993
F0.08
sS'blraexnktk-westup'
p1994
F1.3
sS'coka-ncrnonup'
p1995
F1.46
sa(dp1996
S'boma-goia'
p1997
F3.33
sS'cgsa-pnqa'
p1998
F0.09
sS'orsa-goia'
p1999
F0.01
sS'cgsa-goia'
p2000
F0.0
sS'ixca-goia'
p2001
F0.7200000000000001
sS'jspa-pnqa'
p2002
F0.37
sS'boma-pnqa'
p2003
F17.68
sS'ixca-nktk'
p2004
F0.34
sS'ixca-pnqa'
p2005
F3.9099999999999997
sS'boma-nktk'
p2006
F0.85
sS'orsa-pnqa'
p2007
F0.01
sa(dp2008
S'ncrnonup-ixca'
p2009
F1.93
sS'westup-ixca'
p2010
F0.02
sS'orsa-ixca'
p2011
F0.01
sS'ccua-ixca'
p2012
F0.31
sS'sjaia-ixca'
p2013
F0.0
sS'jaia-ixca'
p2014
F0.12
sS'ncrup-ixca'
p2015
F0.86
sS'goia-ixca'
p2016
F0.46
sS'idra-ixca'
p2017
F0.03
sS'ixub-ixca'
p2018
F0.0
sS'boma-ixca'
p2019
F1.64
sS'eastukna-ixca'
p2020
F0.13
sS'naga-ixca'
p2021
F0.1
sS'eastup-ixca'
p2022
F0.19
sS'apda-ixca'
p2023
F0.43
sS'sguj-ixca'
p2024
F0.33
sS'pnpf-ixca'
p2025
F0.27
sS'blraexnktk-ixca'
p2026
F1.09
sS'snra-ixca'
p2027
F0.25
sS'ixca-ixca'
p2028
F0.64
sS'hyda-ixca'
p2029
F1.71
sS'amda-ixca'
p2030
F0.89
sS'pnqa-ixca'
p2031
F2.04
sS'coka-ixca'
p2032
F0.27
sS'maaa-ixca'
p2033
F1.58
sa(dp2034
S'goia-nktk'
p2035
F0.02
sS'goia-ixma'
p2036
F0.15
sS'goia-blraexnktk'
p2037
F0.77
sS'goia-coka'
p2038
F0.3
sS'goia-cbea'
p2039
F0.08
sS'goia-maaa'
p2040
F0.7
sa(dp2041
S'pnqa-amda'
p2042
F10.84
sS'goia-amda'
p2043
F0.4
sS'pnqa-sjaia'
p2044
F1.59
sS'nktk-amda'
p2045
F0.1
sS'ccua-amda'
p2046
F1.45
sS'goia-sjaia'
p2047
F0.04
sa(dp2048
S'path-guaa'
p2049
F0.31
sS'path-ccua'
p2050
F0.53
sS'jspa-ccua'
p2051
F0.36
sS'jspa-guaa'
p2052
F0.34
sa(dp2053
S'ixma-boma'
p2054
F0.09
sS'coka-ixub'
p2055
F0.0
sS'cbea-ixub'
p2056
F0.16
sS'coka-snra'
p2057
F0.1
sS'coka-boma'
p2058
F0.88
sS'blraexnktk-snra'
p2059
F0.95
sS'blraexnktk-ixub'
p2060
F0.5
sS'blraexnktk-boma'
p2061
F9.66
sS'cbea-boma'
p2062
F3.06
sa(dp2063
S'tirb-amda'
p2064
F0.16
sS'tirb-eastup'
p2065
F0.0
sS'hyda-idra'
p2066
F2.91
sS'hyda-eastup'
p2067
F1.02
sS'hyda-eastukna'
p2068
F0.07
sS'apda-eastukna'
p2069
F0.24
sS'tirb-idra'
p2070
F0.02
sS'apda-amda'
p2071
F1.22
sS'apda-idra'
p2072
F0.22
sS'hyda-amda'
p2073
F1.58
sS'apda-eastup'
p2074
F0.16
sa(dp2075
S'goia-jspa'
p2076
F0.33
sS'goia-boma'
p2077
F0.8
sS'goia-cgsa'
p2078
F0.3
sS'goia-ixca'
p2079
F1.18
sS'pnqa-jspa'
p2080
F4.04
sS'goia-orsa'
p2081
F0.53
sS'nktk-boma'
p2082
F0.03
sS'pnqa-orsa'
p2083
F1.87
sS'pnqa-ixca'
p2084
F12.07
sS'pnqa-boma'
p2085
F10.34
sS'nktk-cgsa'
p2086
F0.01
sS'nktk-ixca'
p2087
F0.06
sS'pnqa-cgsa'
p2088
F1.93
sa(dp2089
S'ncrnonup-naga'
p2090
F1.83
sS'ncrup-cgsa'
p2091
F1.04
sS'pnpf-cgsa'
p2092
F0.03
sS'pnpf-naga'
p2093
F0.1
sS'ncrnonup-cgsa'
p2094
F2.43
sS'ncrup-naga'
p2095
F0.63
sa(dp2096
S'cbea-apda'
p2097
F0.27
sS'cbea-ncrup'
p2098
F2.18
sS'cbea-westup'
p2099
F0.0
sS'cbea-ixca'
p2100
F1.03
sS'cbea-hyda'
p2101
F0.86
sS'cbea-ncrnonup'
p2102
F4.51
sS'cbea-idra'
p2103
F0.74
sS'cbea-eastup'
p2104
F3.4
sS'cbea-pnqa'
p2105
F2.35
sS'cbea-ixub'
p2106
F0.16
sS'cbea-tirb'
p2107
F0.03
sS'cbea-boma'
p2108
F3.06
sS'cbea-jspa'
p2109
F1.84
sS'cbea-cgsa'
p2110
F0.16
sS'cbea-nktk'
p2111
F0.32
sS'cbea-jaia'
p2112
F0.9
sS'cbea-ccua'
p2113
F1.36
sS'cbea-guaa'
p2114
F0.03
sS'cbea-sjaia'
p2115
F0.09
sS'cbea-pnpf'
p2116
F0.01
sS'cbea-path'
p2117
F0.04
sS'cbea-blraexnktk'
p2118
F3.08
sS'cbea-goia'
p2119
F0.0
sS'cbea-amda'
p2120
F3.96
sS'cbea-orsa'
p2121
F0.29
sS'cbea-naga'
p2122
F0.1
sS'cbea-sguj'
p2123
F0.45
sa(dp2124
S'ixca-ncrup'
p2125
F1.76
sS'ixca-eastukna'
p2126
F0.5
sS'ixca-westup'
p2127
F0.52
sa(dp2128
S'amda-eastukna'
p2129
F0.39
sS'orsa-ncrup'
p2130
F0.21
sS'boma-eastukna'
p2131
F0.31
sS'eastup-ncrup'
p2132
F1.5
sS'goia-eastukna'
p2133
F0.01
sS'orsa-eastukna'
p2134
F0.12
sS'pnqa-eastukna'
p2135
F0.76
sS'snra-eastukna'
p2136
F0.09
sS'blraexnktk-eastukna'
p2137
F0.42
sS'eastup-eastukna'
p2138
F0.28
sS'ccua-ncrup'
p2139
F1.17
sS'ixub-eastukna'
p2140
F0.02
sS'ccua-eastukna'
p2141
F0.01
sS'path-ncrup'
p2142
F0.11
sS'naga-eastukna'
p2143
F0.03
sS'jspa-eastukna'
p2144
F0.29
sS'coka-eastukna'
p2145
F0.01
sS'hyda-eastukna'
p2146
F0.07
sS'guaa-ncrup'
p2147
F0.08
sS'apda-eastukna'
p2148
F0.24
sS'sguj-eastukna'
p2149
F0.19
sS'jspa-ncrup'
p2150
F0.02
sa(dp2151
S'ixma-apda'
p2152
F0.07
sS'ixma-naga'
p2153
F0.05
sS'ixma-ncrup'
p2154
F0.16
sS'ixma-blraexnktk'
p2155
F0.5
sS'ixma-pnqa'
p2156
F0.07
sS'ixma-goia'
p2157
F0.01
sS'ixma-ixca'
p2158
F0.04
sS'ixma-nktk'
p2159
F0.02
sS'ixma-jaia'
p2160
F0.03
sS'ixma-ccua'
p2161
F0.17
sS'ixma-amda'
p2162
F0.02
sS'ixma-westup'
p2163
F0.01
sS'ixma-hyda'
p2164
F0.16
sS'ixma-orsa'
p2165
F0.0
sS'ixma-guaa'
p2166
F0.0
sS'ixma-ncrnonup'
p2167
F0.38
sS'ixma-idra'
p2168
F0.45
sS'ixma-boma'
p2169
F0.09
sS'ixma-eastup'
p2170
F0.06
sS'ixma-path'
p2171
F0.0
sS'ixma-jspa'
p2172
F0.01
sa(dp2173
S'boma-jaia'
p2174
F4.58
sa(dp2175
S'pnpf-idra'
p2176
F0.33
sS'ncrnonup-idra'
p2177
F6.08
sa(dp2178
S'jaia-eastukna'
p2179
F0.05
sS'pnpf-eastukna'
p2180
F0.03
sS'ncrnonup-ncrup'
p2181
F3.87
sS'pnpf-ncrup'
p2182
F0.38
sS'maaa-eastukna'
p2183
F0.51
sS'ncrnonup-eastukna'
p2184
F1.08
sa(dp2185
S'sguj-naga'
p2186
F0.4
sS'boma-ixub'
p2187
F3.62
sS'boma-naga'
p2188
F7.58
sa(dp2189
S'ncrup-sjaia'
p2190
F0.3
sS'eastukna-sjaia'
p2191
F0.02
sS'apda-sjaia'
p2192
F0.04
sS'jspa-sjaia'
p2193
F0.0
sS'path-sjaia'
p2194
F0.0
sS'ccua-sjaia'
p2195
F0.11
sS'orsa-sjaia'
p2196
F0.01
sS'ncrnonup-sjaia'
p2197
F3.14
sS'westup-sjaia'
p2198
F0.02
sS'pnpf-sjaia'
p2199
F0.02
sS'eastup-sjaia'
p2200
F0.4
sS'hyda-sjaia'
p2201
F0.12
sS'ixca-sjaia'
p2202
F0.4800000000000001
sa(dp2203
S'sguj-pnqa'
p2204
F1.43
sS'sguj-tirb'
p2205
F0.23
sS'sguj-snra'
p2206
F0.17
sS'sguj-hyda'
p2207
F1.88
sS'sguj-apda'
p2208
F0.43
sS'sguj-goia'
p2209
F0.3
sS'sguj-nktk'
p2210
F0.24
sa(dp2211
S'sguj-eastup'
p2212
F2.37
sS'sguj-jspa'
p2213
F0.76
sS'sguj-eastukna'
p2214
F0.19
sS'sguj-maaa'
p2215
F3.03
sS'sguj-cgsa'
p2216
F0.37
sS'sguj-path'
p2217
F0.67
sS'sguj-naga'
p2218
F0.4
sS'sguj-ccua'
p2219
F4.06
sS'sguj-boma'
p2220
F1.99
sS'sguj-guaa'
p2221
F0.29
sS'sguj-westup'
p2222
F0.36
sS'sguj-orsa'
p2223
F1.16
sS'sguj-ixub'
p2224
F0.3
sS'sguj-idra'
p2225
F0.89
sa(dp2226
S'pnpf-blraexnktk'
p2227
F4.65
sS'ncrnonup-ixma'
p2228
F1.18
sS'ncrup-coka'
p2229
F1.58
sS'ncrup-ixma'
p2230
F0.28
sS'pnpf-coka'
p2231
F0.04
sS'jaia-coka'
p2232
F0.06
sS'pnpf-ixma'
p2233
F0.11
sS'ncrnonup-blraexnktk'
p2234
F24.26
sS'pnpf-cbea'
p2235
F0.05
sS'jaia-blraexnktk'
p2236
F7.24
sS'ncrnonup-cbea'
p2237
F3.58
sS'ncrnonup-coka'
p2238
F4.76
sS'jaia-cbea'
p2239
F0.07
sS'ncrup-cbea'
p2240
F0.63
sS'ncrup-blraexnktk'
p2241
F5.51
sa(dp2242
S'ncrnonup-ixca'
p2243
F7.43
sS'guaa-ixca'
p2244
F0.01
sS'path-ixca'
p2245
F0.04
sS'westup-ixca'
p2246
F0.16
sS'amda-ixca'
p2247
F0.99
sS'cbea-ixca'
p2248
F0.78
sS'ccua-ixca'
p2249
F0.81
sS'jaia-ixca'
p2250
F0.24000000000000002
sS'ncrup-ixca'
p2251
F2.3200000000000003
sS'goia-ixca'
p2252
F0.2
sS'idra-ixca'
p2253
F0.37
sS'ixub-ixca'
p2254
F0.63
sS'boma-ixca'
p2255
F4.63
sS'jspa-ixca'
p2256
F0.15000000000000002
sS'naga-ixca'
p2257
F0.12000000000000001
sS'eastup-ixca'
p2258
F0.9299999999999999
sS'apda-ixca'
p2259
F0.08
sS'cgsa-ixca'
p2260
F0.0
sS'nktk-ixca'
p2261
F0.0
sS'sguj-ixca'
p2262
F0.65
sS'eastukna-ixca'
p2263
F0.12
sS'blraexnktk-ixca'
p2264
F1.8699999999999999
sS'pnpf-ixca'
p2265
F0.02
sS'snra-ixca'
p2266
F0.35
sS'ixca-ixca'
p2267
F2.82
sS'hyda-ixca'
p2268
F0.6399999999999999
sS'pnqa-ixca'
p2269
F4.539999999999999
sS'coka-ixca'
p2270
F0.16999999999999998
sS'maaa-ixca'
p2271
F2.75
sa(dp2272
S'eastup-maaa'
p2273
F0.45
sS'path-boma'
p2274
F0.21
sS'ncrup-idra'
p2275
F2.25
sS'eastup-cgsa'
p2276
F0.08
sS'eastup-sguj'
p2277
F0.35
sS'eastup-naga'
p2278
F0.13
sS'guaa-idra'
p2279
F0.1
sS'guaa-amda'
p2280
F0.05
sS'eastup-apda'
p2281
F0.11
sS'eastup-boma'
p2282
F0.94
sS'eastup-amda'
p2283
F0.37
sS'eastukna-maaa'
p2284
F0.53
sS'eastukna-ixma'
p2285
F0.05
sS'eastup-ixub'
p2286
F0.15
sS'eastup-pnqa'
p2287
F0.13
sS'path-amda'
p2288
F0.06
sS'path-idra'
p2289
F0.04
sS'path-sguj'
p2290
F0.01
sS'eastukna-idra'
p2291
F0.19
sS'eastup-nktk'
p2292
F0.0
sS'eastup-tirb'
p2293
F0.05
sS'eastup-coka'
p2294
F0.07
sS'eastup-hyda'
p2295
F0.3
sS'eastukna-coka'
p2296
F0.0
sS'eastukna-cgsa'
p2297
F0.07
sS'eastup-ixma'
p2298
F0.02
sS'eastukna-cbea'
p2299
F0.27
sS'eastukna-hyda'
p2300
F0.16
sS'eastukna-blraexnktk'
p2301
F1.26
sS'eastup-blraexnktk'
p2302
F0.42
sS'eastup-snra'
p2303
F0.01
sS'path-pnqa'
p2304
F0.04
sS'eastukna-naga'
p2305
F0.02
sS'eastukna-apda'
p2306
F0.02
sS'path-goia'
p2307
F0.0
sS'guaa-boma'
p2308
F0.05
sS'guaa-pnqa'
p2309
F0.03
sS'eastup-idra'
p2310
F0.66
sS'eastup-goia'
p2311
F0.03
sS'eastup-cbea'
p2312
F0.24
sa(dp2313
S'cbea-coka'
p2314
F0.13
sa(dp2315
S'goia-jspa'
p2316
F0.33
sS'snra-orsa'
p2317
F0.33
sS'sguj-cgsa'
p2318
F0.37
sS'sguj-jspa'
p2319
F0.76
sS'goia-cgsa'
p2320
F0.3
sS'goia-orsa'
p2321
F0.53
sS'pnqa-jspa'
p2322
F4.04
sS'boma-orsa'
p2323
F2.6
sS'boma-cgsa'
p2324
F3.46
sS'snra-jspa'
p2325
F0.24
sS'boma-jspa'
p2326
F3.35
sS'ixub-jspa'
p2327
F0.04
sS'sguj-orsa'
p2328
F1.16
sS'pnqa-orsa'
p2329
F1.87
sS'nktk-cgsa'
p2330
F0.01
sS'snra-cgsa'
p2331
F0.29
sS'pnqa-cgsa'
p2332
F1.93
sa(dp2333
S'naga-sguj'
p2334
F0.35
sS'hyda-sguj'
p2335
F0.66
sS'apda-sguj'
p2336
F0.07
sS'westup-sguj'
p2337
F0.16
sS'path-sguj'
p2338
F0.01
sS'ccua-sguj'
p2339
F0.53
sS'boma-sguj'
p2340
F3.53
sS'jspa-sguj'
p2341
F0.02
sS'eastup-sguj'
p2342
F0.35
sS'snra-sguj'
p2343
F0.02
sS'cgsa-sguj'
p2344
F0.0
sS'orsa-sguj'
p2345
F0.01
sS'idra-sguj'
p2346
F0.75
sS'ixub-sguj'
p2347
F0.11
sa(dp2348
S'pnpf-jspa'
p2349
F0.42
sS'pnpf-orsa'
p2350
F0.17
sS'jaia-orsa'
p2351
F0.2
sS'ncrnonup-jspa'
p2352
F2.79
sS'ncrnonup-orsa'
p2353
F3.38
sS'jaia-jspa'
p2354
F0.26
sS'sjaia-jspa'
p2355
F0.07
sa(dp2356
S'path-jaia'
p2357
F0.0
sS'path-westup'
p2358
F0.0
sS'path-amda'
p2359
F0.06
sS'path-sguj'
p2360
F0.01
sS'path-ncrnonup'
p2361
F0.2
sS'path-idra'
p2362
F0.04
sS'path-boma'
p2363
F0.21
sS'path-eastup'
p2364
F0.08
sS'path-pnqa'
p2365
F0.04
sS'path-ncrup'
p2366
F0.11
sS'path-goia'
p2367
F0.0
sS'path-ixca'
p2368
F0.07
sS'path-sjaia'
p2369
F0.0
sa(dp2370
S'boma-path'
p2371
F1.8
sS'boma-westup'
p2372
F1.73
sS'sguj-eastukna'
p2373
F0.19
sS'sguj-eastup'
p2374
F2.37
sS'sguj-path'
p2375
F0.67
sS'ccua-idra'
p2376
F1.13
sS'boma-idra'
p2377
F9.55
sS'boma-eastukna'
p2378
F0.31
sS'boma-eastup'
p2379
F5.78
sS'sguj-idra'
p2380
F0.89
sS'sguj-westup'
p2381
F0.36
sa(dp2382
S'jaia-ccua'
p2383
F1.82
sS'jaia-ncrup'
p2384
F0.59
sS'jaia-apda'
p2385
F0.04
sS'jaia-orsa'
p2386
F0.2
sS'jaia-guaa'
p2387
F0.07
sS'jaia-ncrnonup'
p2388
F2.94
sS'jaia-eastukna'
p2389
F0.05
sS'jaia-blraexnktk'
p2390
F7.24
sS'jaia-path'
p2391
F0.42
sS'jaia-eastup'
p2392
F0.67
sS'jaia-coka'
p2393
F0.06
sS'jaia-maaa'
p2394
F1.34
sS'jaia-cbea'
p2395
F0.07
sS'jaia-westup'
p2396
F0.01
sS'jaia-jspa'
p2397
F0.26
sS'jaia-hyda'
p2398
F0.54
sS'jaia-tirb'
p2399
F0.11
sa(dp2400
S'maaa-pnqa'
p2401
F5.18
sS'maaa-ixub'
p2402
F2.32
sS'maaa-snra'
p2403
F1.06
sa(dp2404
S'amda-nktk'
p2405
F2.24
sS'sjaia-pnqa'
p2406
F0.02
sS'amda-ccua'
p2407
F3.29
sS'sjaia-goia'
p2408
F0.02
sS'amda-guaa'
p2409
F0.38
sS'amda-goia'
p2410
F0.22
sS'amda-pnqa'
p2411
F3.15
sa(dp2412
S'ncrup-eastup'
p2413
F5.76
sS'ncrup-jspa'
p2414
F0.46
sS'eastukna-maaa'
p2415
F0.53
sS'eastukna-ixma'
p2416
F0.05
sS'eastukna-guaa'
p2417
F0.07
sS'eastukna-idra'
p2418
F0.19
sS'eastukna-eastup'
p2419
F0.2
sS'ncrup-ccua'
p2420
F4.29
sS'eastukna-path'
p2421
F0.06
sS'ncrup-path'
p2422
F1.03
sS'eastukna-coka'
p2423
F0.0
sS'eastukna-ccua'
p2424
F0.25
sS'eastukna-cbea'
p2425
F0.27
sS'ncrup-idra'
p2426
F2.25
sS'eastukna-hyda'
p2427
F0.16
sS'eastukna-blraexnktk'
p2428
F1.26
sS'ncrup-orsa'
p2429
F1.18
sS'eastukna-naga'
p2430
F0.02
sS'eastukna-jspa'
p2431
F0.02
sS'eastukna-cgsa'
p2432
F0.07
sS'eastukna-orsa'
p2433
F0.37
sS'eastukna-apda'
p2434
F0.02
sS'ncrup-guaa'
p2435
F0.81
sa(dp2436
S'ixca-maaa'
p2437
F0.29
sS'ixca-naga'
p2438
F0.06
sS'ixca-goia'
p2439
F0.02
sS'ixca-ixub'
p2440
F0.01
sS'ixca-ixma'
p2441
F0.0
sS'ixca-sjaia'
p2442
F0.01
sS'ixca-eastukna'
p2443
F0.0
sS'ixca-guaa'
p2444
F0.12
sS'ixca-jspa'
p2445
F0.04
sS'ixca-pnpf'
p2446
F0.01
sS'ixca-amda'
p2447
F0.02
sS'ixca-coka'
p2448
F0.03
sS'ixca-idra'
p2449
F0.07
sS'ixca-nktk'
p2450
F0.0
sS'ixca-cgsa'
p2451
F0.04
sS'ixca-sguj'
p2452
F0.0
sS'ixca-ncrup'
p2453
F0.06
sS'ixca-path'
p2454
F0.07
sS'ixca-blraexnktk'
p2455
F0.27
sS'ixca-eastup'
p2456
F0.1
sS'ixca-ccua'
p2457
F0.03
sS'ixca-apda'
p2458
F0.11
sS'ixca-tirb'
p2459
F0.04
sS'ixca-snra'
p2460
F0.02
sS'ixca-ncrnonup'
p2461
F0.24
sS'ixca-jaia'
p2462
F0.07
sS'ixca-ixca'
p2463
F0.09999999999999999
sS'ixca-hyda'
p2464
F0.07
sS'ixca-westup'
p2465
F0.03
sS'ixca-orsa'
p2466
F0.05
sS'ixca-pnqa'
p2467
F0.11
sS'ixca-cbea'
p2468
F0.01
sS'ixca-boma'
p2469
F0.24
sa(dp2470
S'coka-jspa'
p2471
F0.0
sS'nktk-jspa'
p2472
F0.01
sS'orsa-ixca'
p2473
F0.03
sS'orsa-ncrup'
p2474
F0.21
sS'tirb-path'
p2475
F0.0
sS'orsa-jspa'
p2476
F0.08
sS'blraexnktk-path'
p2477
F0.57
sS'hyda-jspa'
p2478
F1.08
sS'maaa-path'
p2479
F0.67
sS'orsa-sjaia'
p2480
F0.01
sS'orsa-eastukna'
p2481
F0.12
sS'apda-jspa'
p2482
F0.21
sS'orsa-jaia'
p2483
F0.02
sS'blraexnktk-jspa'
p2484
F0.91
sS'orsa-ncrnonup'
p2485
F0.22
sS'cbea-jspa'
p2486
F1.84
sS'hyda-path'
p2487
F0.43
sS'orsa-eastup'
p2488
F0.03
sS'orsa-path'
p2489
F0.2
sS'coka-path'
p2490
F0.07
sS'cbea-path'
p2491
F0.04
sS'ixma-jspa'
p2492
F0.01
sS'apda-path'
p2493
F0.07
sS'maaa-jspa'
p2494
F1.26
sS'ixma-path'
p2495
F0.0
sa(dp2496
S'sjaia-maaa'
p2497
F0.09
sS'sjaia-amda'
p2498
F0.01
sS'sjaia-pnqa'
p2499
F0.02
sS'sjaia-ixub'
p2500
F0.0
sS'sjaia-ixma'
p2501
F0.01
sS'sjaia-goia'
p2502
F0.02
sS'sjaia-boma'
p2503
F0.15
sS'sjaia-blraexnktk'
p2504
F0.14
sS'sjaia-idra'
p2505
F0.05
sS'sjaia-coka'
p2506
F0.01
sa(dp2507
S'ncrnonup-snra'
p2508
F0.62
sS'ncrnonup-boma'
p2509
F15.72
sS'pnpf-boma'
p2510
F0.48
sS'eastukna-boma'
p2511
F0.37
sS'ncrnonup-ixub'
p2512
F0.7
sS'pnpf-snra'
p2513
F0.0
sS'ncrup-snra'
p2514
F0.44
sS'ncrup-boma'
p2515
F6.92
sS'ncrup-ixub'
p2516
F0.95
sa(dp2517
S'nktk-eastup'
p2518
F0.1
sS'nktk-ncrnonup'
p2519
F0.44
sS'nktk-ncrup'
p2520
F0.02
sS'nktk-ccua'
p2521
F0.56
sS'nktk-amda'
p2522
F0.1
sS'nktk-idra'
p2523
F0.06
sS'nktk-boma'
p2524
F0.03
sS'nktk-snra'
p2525
F0.0
sS'nktk-cgsa'
p2526
F0.01
sS'nktk-ixca'
p2527
F0.06
sS'nktk-pnqa'
p2528
F0.46
sa(dp2529
S'ccua-cbea'
p2530
F0.48
sS'guaa-blraexnktk'
p2531
F0.03
sS'ccua-blraexnktk'
p2532
F3.37
sS'ccua-nktk'
p2533
F0.01
sS'guaa-ixma'
p2534
F0.0
sS'guaa-cbea'
p2535
F0.0
sS'ccua-coka'
p2536
F1.12
sS'guaa-coka'
p2537
F0.01
sS'ccua-ixma'
p2538
F0.33
sa(dp2539
S'ixub-westup'
p2540
F0.54
sS'snra-idra'
p2541
F0.41
sS'ixub-eastukna'
p2542
F0.02
sS'snra-westup'
p2543
F0.18
sS'snra-path'
p2544
F0.2
sS'ixub-idra'
p2545
F0.26
sS'ixub-eastup'
p2546
F0.66
sS'snra-eastup'
p2547
F0.53
sS'snra-eastukna'
p2548
F0.09
sa(dp2549
S'ncrnonup-amda'
p2550
F6.31
sS'ncrup-amda'
p2551
F2.36
sS'eastukna-amda'
p2552
F0.42
sS'pnpf-amda'
p2553
F0.38
sa(dp2554
S'blraexnktk-sguj'
p2555
F1.55
sS'maaa-sguj'
p2556
F1.59
sS'cbea-sguj'
p2557
F0.45
sS'coka-sguj'
p2558
F0.36
sa(dp2559
S'cbea-cgsa'
p2560
F0.16
sS'ixma-naga'
p2561
F0.05
sS'blraexnktk-naga'
p2562
F0.67
sS'hyda-naga'
p2563
F0.27
sS'blraexnktk-cgsa'
p2564
F0.65
sS'coka-naga'
p2565
F0.01
sS'hyda-cgsa'
p2566
F0.3
sS'tirb-naga'
p2567
F0.03
sS'coka-cgsa'
p2568
F0.02
sS'apda-cgsa'
p2569
F0.08
sS'apda-naga'
p2570
F0.16
sS'cbea-naga'
p2571
F0.1
sa(dp2572
S'ncrup-ixca'
p2573
F5.21
sS'westup-ixca'
p2574
F0.31
sS'eastukna-ixca'
p2575
F0.43000000000000005
sa(dp2576
S'hyda-guaa'
p2577
F0.35
sS'goia-apda'
p2578
F0.22
sS'hyda-ccua'
p2579
F2.34
sS'pnqa-apda'
p2580
F2.37
sS'ixca-apda'
p2581
F1.7800000000000002
sS'tirb-orsa'
p2582
F0.0
sS'jaia-apda'
p2583
F0.04
sS'tirb-path'
p2584
F0.0
sS'naga-apda'
p2585
F0.29
sS'ncrup-apda'
p2586
F1.16
sS'hyda-jspa'
p2587
F1.08
sS'eastup-apda'
p2588
F0.11
sS'tirb-apda'
p2589
F0.19
sS'hyda-orsa'
p2590
F0.55
sS'sjaia-apda'
p2591
F0.11
sS'ixub-apda'
p2592
F0.04
sS'tirb-guaa'
p2593
F0.0
sS'hyda-path'
p2594
F0.43
sS'sguj-apda'
p2595
F0.43
sS'hyda-apda'
p2596
F5.98
sS'boma-apda'
p2597
F4.71
sS'cgsa-apda'
p2598
F0.0
sS'westup-apda'
p2599
F0.17
sS'snra-apda'
p2600
F0.51
sS'tirb-ccua'
p2601
F0.03
sS'amda-apda'
p2602
F1.15
sS'idra-apda'
p2603
F0.2
sS'ncrnonup-apda'
p2604
F4.19
sS'pnpf-apda'
p2605
F0.04
sS'eastukna-apda'
p2606
F0.02
sa(dp2607
S'pnqa-jaia'
p2608
F2.11
sS'snra-jaia'
p2609
F0.8
sS'goia-jaia'
p2610
F0.31
sS'ixub-jaia'
p2611
F0.01
sa(dp2612
S'naga-idra'
p2613
F0.42
sS'cgsa-idra'
p2614
F0.39
sS'cgsa-amda'
p2615
F0.02
sS'cgsa-maaa'
p2616
F0.16
sS'cgsa-jaia'
p2617
F0.01
sS'naga-ncrup'
p2618
F0.09
sS'naga-ncrnonup'
p2619
F0.07
sS'orsa-idra'
p2620
F0.12
sS'jspa-idra'
p2621
F0.03
sS'naga-eastup'
p2622
F0.33
sS'naga-eastukna'
p2623
F0.03
sS'naga-jaia'
p2624
F0.09
sS'naga-westup'
p2625
F0.09
sS'cgsa-ncrnonup'
p2626
F0.04
sS'naga-ixca'
p2627
F0.45999999999999996
sS'cgsa-ixca'
p2628
F0.04
sS'cgsa-ncrup'
p2629
F0.08
sS'jspa-amda'
p2630
F0.06
sS'orsa-amda'
p2631
F0.09
sS'cgsa-sjaia'
p2632
F0.0
sS'naga-sjaia'
p2633
F0.0
sS'naga-amda'
p2634
F0.13
sS'cgsa-eastup'
p2635
F0.07
sa(dp2636
S'goia-maaa'
p2637
F0.7
sS'blraexnktk-maaa'
p2638
F13.68
sS'nktk-maaa'
p2639
F0.04
sa(dp2640
S'amda-tirb'
p2641
F0.12
sS'amda-apda'
p2642
F1.15
sS'eastup-apda'
p2643
F0.11
sS'westup-tirb'
p2644
F0.0
sS'idra-tirb'
p2645
F0.01
sS'eastukna-hyda'
p2646
F0.16
sS'ixca-hyda'
p2647
F3.4899999999999998
sS'ixca-apda'
p2648
F1.7800000000000002
sS'amda-hyda'
p2649
F3.55
sS'idra-apda'
p2650
F0.2
sS'westup-apda'
p2651
F0.17
sS'westup-hyda'
p2652
F0.91
sS'eastup-tirb'
p2653
F0.05
sS'idra-hyda'
p2654
F0.29
sS'eastup-hyda'
p2655
F0.3
sS'ixca-tirb'
p2656
F0.28
sS'eastukna-apda'
p2657
F0.02
sa(dp2658
S'ncrup-westup'
p2659
F1.68
sS'eastukna-westup'
p2660
F0.01
sS'ixca-westup'
p2661
F0.52
sa(dp2662
S'ncrup-cgsa'
p2663
F1.04
sS'naga-ccua'
p2664
F1.3
sS'amda-cgsa'
p2665
F0.74
sS'coka-cgsa'
p2666
F0.02
sS'jaia-cgsa'
p2667
F0.09
sS'eastup-cgsa'
p2668
F0.08
sS'amda-jspa'
p2669
F0.57
sS'westup-cgsa'
p2670
F0.09
sS'pnpf-cgsa'
p2671
F0.03
sS'ixca-cgsa'
p2672
F1.79
sS'ixub-cgsa'
p2673
F0.1
sS'idra-jspa'
p2674
F0.06
sS'cbea-cgsa'
p2675
F0.16
sS'ixub-path'
p2676
F0.19
sS'ixub-orsa'
p2677
F0.17
sS'maaa-cgsa'
p2678
F2.11
sS'blraexnktk-cgsa'
p2679
F0.65
sS'hyda-cgsa'
p2680
F0.3
sS'naga-guaa'
p2681
F0.23
sS'naga-path'
p2682
F0.21
sS'idra-cgsa'
p2683
F0.22
sS'apda-cgsa'
p2684
F0.08
sS'naga-orsa'
p2685
F0.27
sS'idra-orsa'
p2686
F0.71
sS'naga-jspa'
p2687
F0.05
sS'ncrnonup-cgsa'
p2688
F2.43
sS'amda-orsa'
p2689
F0.75
sS'eastukna-cgsa'
p2690
F0.07
sS'naga-cgsa'
p2691
F0.74
sa(dp2692
S'guaa-maaa'
p2693
F0.13
sS'path-maaa'
p2694
F0.11
sS'orsa-maaa'
p2695
F0.09
sS'jspa-maaa'
p2696
F0.27
sS'apda-maaa'
p2697
F0.96
sS'ccua-maaa'
p2698
F2.29
sa(dp2699
S'ixca-naga'
p2700
F0.77
sS'ixca-hyda'
p2701
F3.4899999999999998
sS'ixca-apda'
p2702
F1.7800000000000002
sS'ixca-amda'
p2703
F2.5900000000000003
sS'ixca-cgsa'
p2704
F1.79
sS'ixca-idra'
p2705
F2.25
sS'ixca-tirb'
p2706
F0.28
sa(dp2707
S'ixca-maaa'
p2708
F0.64
sS'ixca-naga'
p2709
F0.14
sS'ixca-goia'
p2710
F0.24
sS'ixca-ixub'
p2711
F0.01
sS'ixca-ixma'
p2712
F0.05
sS'ixca-sjaia'
p2713
F0.01
sS'ixca-eastukna'
p2714
F0.11
sS'ixca-guaa'
p2715
F0.23
sS'ixca-jspa'
p2716
F0.22
sS'ixca-pnpf'
p2717
F0.02
sS'ixca-amda'
p2718
F0.48
sS'ixca-coka'
p2719
F0.15
sS'ixca-idra'
p2720
F0.29
sS'ixca-cgsa'
p2721
F0.12
sS'ixca-sguj'
p2722
F0.11
sS'ixca-ncrup'
p2723
F0.25
sS'ixca-path'
p2724
F0.26
sS'ixca-blraexnktk'
p2725
F1.15
sS'ixca-eastup'
p2726
F0.37
sS'ixca-ccua'
p2727
F0.46
sS'ixca-apda'
p2728
F0.27
sS'ixca-tirb'
p2729
F0.05
sS'ixca-snra'
p2730
F0.13
sS'ixca-ncrnonup'
p2731
F0.93
sS'ixca-jaia'
p2732
F0.28
sS'ixca-ixca'
p2733
F1.2799999999999998
sS'ixca-hyda'
p2734
F0.59
sS'ixca-westup'
p2735
F0.02
sS'ixca-orsa'
p2736
F0.45
sS'ixca-pnqa'
p2737
F0.4
sS'ixca-cbea'
p2738
F0.02
sS'ixca-boma'
p2739
F0.88
sa(dp2740
S'hyda-snra'
p2741
F0.05
sS'apda-snra'
p2742
F0.13
sS'hyda-pnqa'
p2743
F1.01
sS'apda-goia'
p2744
F0.04
sS'apda-pnqa'
p2745
F0.48
sS'hyda-ixub'
p2746
F0.1
sS'tirb-goia'
p2747
F0.09
sS'apda-ixub'
p2748
F0.27
sS'tirb-ixub'
p2749
F0.01
sS'tirb-pnqa'
p2750
F0.21
sS'hyda-goia'
p2751
F0.4
sa(dp2752
S'pnqa-ccua'
p2753
F8.67
sS'ixub-ccua'
p2754
F0.01
sS'goia-guaa'
p2755
F0.2
sS'ixub-guaa'
p2756
F0.01
sS'nktk-ccua'
p2757
F0.56
sS'goia-ccua'
p2758
F0.6
sS'amda-ccua'
p2759
F3.29
sS'pnqa-guaa'
p2760
F1.18
sS'snra-guaa'
p2761
F0.46
sS'amda-guaa'
p2762
F0.38
sS'snra-ccua'
p2763
F0.85
sa(dp2764
S'jspa-cbea'
p2765
F0.09
sS'orsa-nktk'
p2766
F0.0
sS'apda-coka'
p2767
F0.56
sS'path-cbea'
p2768
F0.01
sS'orsa-coka'
p2769
F0.02
sS'orsa-cbea'
p2770
F0.01
sS'path-coka'
p2771
F0.12
sS'path-blraexnktk'
p2772
F0.1
sS'orsa-blraexnktk'
p2773
F0.09
sS'apda-nktk'
p2774
F0.11
sS'jspa-ixma'
p2775
F0.04
sS'jspa-blraexnktk'
p2776
F0.28
sS'orsa-ixma'
p2777
F0.04
sS'apda-blraexnktk'
p2778
F3.08
sS'jspa-coka'
p2779
F0.04
sS'apda-ixma'
p2780
F0.09
sS'path-nktk'
p2781
F0.0
sS'path-ixma'
p2782
F0.01
sS'apda-cbea'
p2783
F0.07
sa(dp2784
S'guaa-amda'
p2785
F0.05
sS'maaa-amda'
p2786
F6.62
sS'path-amda'
p2787
F0.06
sS'jspa-amda'
p2788
F0.06
sS'naga-jaia'
p2789
F0.09
sS'cgsa-amda'
p2790
F0.02
sS'cgsa-jaia'
p2791
F0.01
sS'tirb-amda'
p2792
F0.16
sS'orsa-amda'
p2793
F0.09
sS'idra-amda'
p2794
F1.94
sS'cgsa-sjaia'
p2795
F0.0
sS'ixca-amda'
p2796
F2.5900000000000003
sS'naga-sjaia'
p2797
F0.0
sS'apda-amda'
p2798
F1.22
sS'naga-amda'
p2799
F0.13
sS'eastup-amda'
p2800
F0.37
sS'hyda-amda'
p2801
F1.58
sS'idra-sjaia'
p2802
F0.07
sS'westup-amda'
p2803
F0.38
sS'idra-jaia'
p2804
F0.24
sa(dp2805
S'guaa-naga'
p2806
F0.03
sS'ccua-ixub'
p2807
F0.11
sS'ccua-orsa'
p2808
F3.99
sS'ccua-naga'
p2809
F0.31
sS'guaa-ixub'
p2810
F0.0
sS'guaa-cgsa'
p2811
F0.12
sS'guaa-orsa'
p2812
F0.04
sS'ccua-cgsa'
p2813
F0.79
sa(dp2814
S'amda-sguj'
p2815
F1.59
sS'jaia-sguj'
p2816
F0.06
sa(dp2817
S'ncrup-orsa'
p2818
F1.18
sS'ncrup-jspa'
p2819
F0.46
sS'ixca-orsa'
p2820
F1.3100000000000003
sS'eastukna-jspa'
p2821
F0.02
sS'eastup-orsa'
p2822
F0.23
sS'eastup-jspa'
p2823
F0.42
sS'westup-orsa'
p2824
F0.09
sS'westup-jspa'
p2825
F0.2
sS'ixca-jspa'
p2826
F0.96
sS'eastukna-orsa'
p2827
F0.37
sa(dp2828
S'ncrnonup-ixca'
p2829
F1.82
sS'westup-ixca'
p2830
F0.0
sS'amda-ixca'
p2831
F0.05
sS'ccua-ixca'
p2832
F0.05
sS'jaia-ixca'
p2833
F0.0
sS'ncrup-ixca'
p2834
F0.38
sS'goia-ixca'
p2835
F0.12
sS'idra-ixca'
p2836
F0.03
sS'ixub-ixca'
p2837
F0.01
sS'boma-ixca'
p2838
F1.3
sS'jspa-ixca'
p2839
F0.0
sS'naga-ixca'
p2840
F0.02
sS'eastup-ixca'
p2841
F0.15
sS'apda-ixca'
p2842
F0.01
sS'cgsa-ixca'
p2843
F0.0
sS'sguj-ixca'
p2844
F0.09
sS'pnpf-ixca'
p2845
F0.03
sS'blraexnktk-ixca'
p2846
F0.37
sS'snra-ixca'
p2847
F0.04
sS'ixca-ixca'
p2848
F0.22000000000000003
sS'hyda-ixca'
p2849
F0.79
sS'pnqa-ixca'
p2850
F0.26
sS'coka-ixca'
p2851
F0.05
sS'maaa-ixca'
p2852
F0.63
sa(dp2853
S'ixma-goia'
p2854
F0.01
sS'coka-goia'
p2855
F0.02
sS'cbea-goia'
p2856
F0.0
sS'maaa-goia'
p2857
F1.38
sS'nktk-goia'
p2858
F0.11
sS'blraexnktk-goia'
p2859
F0.51
sa(dp2860
S'ixca-ncrnonup'
p2861
F12.809999999999999
sS'ixca-maaa'
p2862
F9.860000000000001
sS'ixca-jaia'
p2863
F1.7300000000000002
sS'ixca-sjaia'
p2864
F0.4800000000000001
sS'pnpf-ncrnonup'
p2865
F0.35
sa(dp2866
S'hyda-nktk'
p2867
F0.49
sS'orsa-nktk'
p2868
F0.0
sS'tirb-nktk'
p2869
F0.01
sS'maaa-nktk'
p2870
F0.66
sS'cbea-goia'
p2871
F0.0
sS'coka-goia'
p2872
F0.02
sS'ixma-goia'
p2873
F0.01
sS'maaa-goia'
p2874
F1.38
sS'cbea-nktk'
p2875
F0.32
sS'ccua-nktk'
p2876
F0.01
sS'ixma-nktk'
p2877
F0.02
sS'coka-nktk'
p2878
F0.03
sS'blraexnktk-goia'
p2879
F0.51
sS'apda-nktk'
p2880
F0.11
sS'blraexnktk-nktk'
p2881
F2.59
sS'path-nktk'
p2882
F0.0
sa(dp2883
S'ccua-eastukna'
p2884
F0.01
sS'ccua-ncrup'
p2885
F1.17
sS'ccua-westup'
p2886
F0.28
sS'ccua-eastup'
p2887
F1.0
sS'ccua-ixca'
p2888
F2.35
sa(dp2889
S'ccua-pnqa'
p2890
F1.15
sS'ccua-snra'
p2891
F0.17
sS'ccua-amda'
p2892
F1.45
sS'ccua-goia'
p2893
F0.18
sa(dp2894
S'jaia-ccua'
p2895
F1.82
sS'sjaia-ccua'
p2896
F0.02
sS'ncrnonup-ccua'
p2897
F14.18
sS'pnpf-ccua'
p2898
F0.26
sS'jaia-guaa'
p2899
F0.07
sS'ncrnonup-guaa'
p2900
F3.11
sa(dp2901
S'naga-goia'
p2902
F0.02
sS'naga-nktk'
p2903
F0.14
sS'naga-pnqa'
p2904
F0.62
sS'naga-snra'
p2905
F0.13
sa(dp2906
S'pnpf-path'
p2907
F0.25
sS'ixca-path'
p2908
F0.42
sS'pnpf-eastup'
p2909
F1.37
sS'ncrnonup-eastup'
p2910
F10.05
sS'ncrnonup-path'
p2911
F3.97
sS'jaia-eastup'
p2912
F0.67
sS'jaia-path'
p2913
F0.42
sS'maaa-eastup'
p2914
F2.41
sS'sjaia-eastup'
p2915
F0.01
sa(dp2916
S'snra-maaa'
p2917
F2.01
sS'pnqa-maaa'
p2918
F12.38
sS'ixub-maaa'
p2919
F0.63
sa(dp2920
S'amda-nktk'
p2921
F2.24
sS'pnpf-nktk'
p2922
F0.25
sS'naga-nktk'
p2923
F0.14
sS'pnqa-nktk'
p2924
F0.73
sS'ncrnonup-nktk'
p2925
F0.43
sS'ncrup-nktk'
p2926
F0.24
sS'snra-nktk'
p2927
F0.0
sS'eastup-nktk'
p2928
F0.0
sS'ixca-nktk'
p2929
F0.34
sS'ixub-nktk'
p2930
F0.12
sS'idra-nktk'
p2931
F0.24
sS'boma-nktk'
p2932
F0.85
sS'jaia-nktk'
p2933
F0.01
sS'sguj-nktk'
p2934
F0.24
sa(dp2935
S'goia-ixma'
p2936
F0.15
sS'sjaia-ixma'
p2937
F0.01
sS'ncrnonup-ixma'
p2938
F1.18
sS'ixca-ixma'
p2939
F1.6800000000000004
sS'jspa-ixma'
p2940
F0.04
sS'path-ixma'
p2941
F0.01
sS'westup-ixma'
p2942
F0.16
sS'boma-ixma'
p2943
F1.19
sS'eastukna-ixma'
p2944
F0.05
sS'orsa-ixma'
p2945
F0.04
sS'sguj-ixma'
p2946
F0.49
sS'idra-ixma'
p2947
F0.43
sS'naga-ixma'
p2948
F0.3
sS'ncrup-ixma'
p2949
F0.28
sS'hyda-ixma'
p2950
F0.43
sS'blraexnktk-ixma'
p2951
F1.33
sS'amda-ixma'
p2952
F0.96
sS'nktk-ixma'
p2953
F0.03
sS'pnqa-ixma'
p2954
F1.14
sS'ixub-ixma'
p2955
F0.5
sS'eastup-ixma'
p2956
F0.02
sS'guaa-ixma'
p2957
F0.0
sS'pnpf-ixma'
p2958
F0.11
sS'ccua-ixma'
p2959
F0.33
sS'apda-ixma'
p2960
F0.09
sS'snra-ixma'
p2961
F0.22
sa(dp2962
S'amda-tirb'
p2963
F0.12
sS'sjaia-maaa'
p2964
F0.09
sS'amda-apda'
p2965
F1.15
sS'jaia-naga'
p2966
F0.05
sS'amda-maaa'
p2967
F4.35
sS'amda-naga'
p2968
F0.82
sS'amda-eastup'
p2969
F1.59
sS'amda-path'
p2970
F0.79
sS'sjaia-idra'
p2971
F0.05
sS'amda-cgsa'
p2972
F0.74
sS'jaia-idra'
p2973
F0.34
sS'amda-eastukna'
p2974
F0.39
sS'amda-hyda'
p2975
F3.55
sS'amda-westup'
p2976
F0.37
sS'amda-orsa'
p2977
F0.75
sS'amda-jspa'
p2978
F0.57
sS'jaia-cgsa'
p2979
F0.09
sS'amda-idra'
p2980
F1.53
sa(dp2981
S'cgsa-ncrup'
p2982
F0.08
sS'naga-ixca'
p2983
F0.45999999999999996
sS'naga-ncrup'
p2984
F0.09
sS'idra-ncrup'
p2985
F0.15
sS'idra-ixca'
p2986
F0.68
sS'naga-ncrnonup'
p2987
F0.07
sS'idra-pnpf'
p2988
F0.0
sS'cgsa-ixca'
p2989
F0.04
sS'cgsa-ncrnonup'
p2990
F0.04
sS'idra-ncrnonup'
p2991
F1.22
sa(dp2992
S'eastup-guaa'
p2993
F0.09
sS'ncrup-ccua'
p2994
F4.29
sS'westup-ccua'
p2995
F1.32
sS'eastukna-guaa'
p2996
F0.07
sS'eastukna-ccua'
p2997
F0.25
sS'ixca-ccua'
p2998
F6.88
sS'eastup-ccua'
p2999
F0.28
sS'ixca-guaa'
p3000
F1.4900000000000002
sS'westup-guaa'
p3001
F0.03
sS'ncrup-guaa'
p3002
F0.81
sa(dp3003
S'jaia-snra'
p3004
F0.01
sS'jaia-pnqa'
p3005
F1.53
sS'jaia-nktk'
p3006
F0.01
sS'jaia-ixub'
p3007
F0.01
sS'jaia-goia'
p3008
F0.01
sa(dp3009
S'guaa-naga'
p3010
F0.03
sS'guaa-maaa'
p3011
F0.13
sS'guaa-ccua'
p3012
F0.6
sS'guaa-path'
p3013
F0.28
sS'guaa-blraexnktk'
p3014
F0.03
sS'guaa-hyda'
p3015
F0.05
sS'guaa-ixma'
p3016
F0.0
sS'guaa-coka'
p3017
F0.01
sS'guaa-cbea'
p3018
F0.0
sS'guaa-apda'
p3019
F0.0
sS'guaa-orsa'
p3020
F0.04
sS'guaa-cgsa'
p3021
F0.12
sS'guaa-ixub'
p3022
F0.0
sS'guaa-jspa'
p3023
F0.08
sa(dp3024
S'ixma-coka'
p3025
F0.31
sS'maaa-coka'
p3026
F4.83
sa(dp3027
S'guaa-amda'
p3028
F0.05
sS'guaa-ixca'
p3029
F0.03
sS'guaa-ncrnonup'
p3030
F0.3
sS'guaa-ncrup'
p3031
F0.08
sS'guaa-jaia'
p3032
F0.0
sS'guaa-boma'
p3033
F0.05
sS'guaa-idra'
p3034
F0.1
sS'guaa-eastup'
p3035
F0.09
sS'guaa-pnqa'
p3036
F0.03
sa(dp3037
S'sguj-maaa'
p3038
F3.03
sS'boma-maaa'
p3039
F12.62
sa(dp3040
S'apda-boma'
p3041
F3.95
sS'hyda-boma'
p3042
F3.03
sS'tirb-boma'
p3043
F0.47
sS'apda-sguj'
p3044
F0.07
sS'hyda-sguj'
p3045
F0.66
sa(dp3046
S'westup-eastup'
p3047
F0.48
sS'westup-ccua'
p3048
F1.32
sS'westup-path'
p3049
F0.21
sS'westup-orsa'
p3050
F0.09
sS'westup-guaa'
p3051
F0.03
sS'westup-jspa'
p3052
F0.2
sa(dp3053
S'ccua-path'
p3054
F4.19
sS'guaa-jspa'
p3055
F0.08
sS'ccua-jspa'
p3056
F2.68
sS'guaa-path'
p3057
F0.28
sa(dp3058
S'path-jaia'
p3059
F0.0
sS'eastup-ncrnonup'
p3060
F2.39
sS'path-ixca'
p3061
F0.0
sS'westup-jaia'
p3062
F0.13
sS'eastup-pnpf'
p3063
F0.04
sS'guaa-ncrnonup'
p3064
F0.3
sS'path-ncrnonup'
p3065
F0.2
sS'guaa-jaia'
p3066
F0.0
sS'westup-sjaia'
p3067
F0.02
sS'eastup-jaia'
p3068
F0.63
sS'eastup-sjaia'
p3069
F0.4
sS'path-sjaia'
p3070
F0.0
satp3071
bag19
(g20
(I0
tp3072
g22
tp3073
Rp3074
(I1
(L1L
L206L
tp3075
g26
(S'f8'
p3076
I0
I1
tp3077
Rp3078
(I3
S'<'
p3079
NNNI-1
I-1
I0
tp3080
bI00
S'{\x14\xaeG\xe1\xfa$@\x1f\x85\xebQ\xb8\x1e%@(\\\x8f\xc2\xf5(\x15@)\\\x8f\xc2\xf5(\xe4?\n\xd7\xa3p=jF@\x90\xc2\xf5(\\\x8f\x08@\xecQ\xb8\x1e\x85\xeb\x03@\\\x8f\xc2\xf5(\\(@\xb8\x1e\x85\xebQ\xb8#@\xff\xff\xff\xff\xff\xff\x0b@p=\n\xd7\xa3p\x01@\x00\x00\x00\x00\x00\x00\x13@\x86\xebQ\xb8\x1e\x85\xff?q=\n\xd7\xa3p\xed?\xaeG\xe1z\x14\xae\'@\x85\xebQ\xb8\x1e\x85\x18@G\xe1z\x14\xaeG\x03@<\n\xd7\xa3p=+@\xaeG\xe1z\x14\xae"@\\\x8f\xc2\xf5(\\\xff?Q\xb8\x1e\x85\xeb\x91E@\xcc\xcc\xcc\xcc\xcc\xcc\x17@\x9c\x99\x99\x99\x99\x99\x1d@\xa4p=\n\xd7\xe36@]\x8f\xc2\xf5(\\\x01@H\xe1z\x14\xaeGA@333333\t@\x1e\x85\xebQ\xb8\x1e\xfd?\xcc\xcc\xcc\xcc\xccL0@p=\n\xd7\xa3pF@(\\\x8f\xc2\xf5(#@\xcd\xcc\xcc\xcc\xcc\xcc\x0e@\x99\x99\x99\x99\x99\x99!@\xd7\xa3p=\nW%@\x14\xaeG\xe1z\x14\x00@\xc3\xf5(\\\x8f\xc2\xe5?>\n\xd7\xa3p=&@\xd7\xa3p=\nW#@\xc3\xf5(\\\x8f\x027@\xc3\xf5(\\\x8f\xc2\x01@\xb8\x1e\x85\xebQ\xb8\x1c@=\n\xd7\xa3p=\x19@\xebQ\xb8\x1e\x85k#@>\n\xd7\xa3p\xbd!@\xd7\xa3p=\n\xd7\x11@\xebQ\xb8\x1e\x85\xab5@433333G@=\n\xd7\xa3p=\xf2?\xecQ\xb8\x1e\x85\xeb\xd1?q=\n\xd7\xa3\x90A@\xc3\xf5(\\\x8fB<@\x1f\x85\xebQ\xb8\x9e>@<\n\xd7\xa3p=)@F\xe1z\x14\xaeG\r@\xd7\xa3p=\n\xd7\x17@R\xb8\x1e\x85\xebQ\xd8?\x00\x00\x00\x00\x00\x00$@p=\n\xd7\xa301@\x14\xaeG\xe1z\x14\x19@\xa4p=\n\xd7#"@?\n\xd7\xa3p}>@\xc2\xf5(\\\x8f\xc2\x10@333333&@33333s1@\xc3\xf5(\\\x8f\xc2\xc5?ffffff\xee?\xff\xff\xff\xff\xff\x7f1@R\xb8\x1e\x85\xebQ!@\xd7\xa3p=\n\xd7\x03@\xecQ\xb8\x1e\x85\xeb\x1b@\xf6(\\\x8f\xc2\xf5\xf0?\xcc\xcc\xcc\xcc\xcc\xcc\xfc?gfffff/@gfffff(@\\\x8f\xc2\xf5(\\\x14@\xf7(\\\x8f\xc2\xf5\n@\xc3\xf5(\\\x8f\x82<@\xc3\xf5(\\\x8f\xc2\xe5?\x86\xebQ\xb8\x1e\x85\xff?333333\t@)\\\x8f\xc2\xf5\xa8$@>\n\xd7\xa3p=\x02@\xebQ\xb8\x1e\x85k(@\\\x8f\xc2\xf5(\\/@\xf5(\\\x8f\xc2\xf5\x17@\t\xd7\xa3p=\n?@\xf6(\\\x8f\xc2\xb51@\x99\x99\x99\x99\x99\x99\x01@\\\x8f\xc2\xf5(\x1c0@\x85\xebQ\xb8\x1e\x85 @R\xb8\x1e\x85\xebQ\x00@\xb8\x1e\x85\xebQ\xb8\xae?F\xe1z\x14\xaeG"@gfffff\xfe?\x84\xebQ\xb8\x1e\x05$@p=\n\xd7\xa3p\xf5?3333330@\xaeG\xe1z\x14\xae\x05@F\xe1z\x14\xae\'A@\xc3\xf5(\\\x8f\xc2\x1f@\xcc\xcc\xcc\xcc\xcc\xcc(@\n\xd7\xa3p=\n\xe7?H\xe1z\x14\xaeG\xfd?\x0b\xd7\xa3p=\n!@)\\\x8f\xc2\xf5(/@\xa2p=\n\xd7\xa3/@\xff\xff\xff\xff\xff\xff*@\'\\\x8f\xc2\xf5(3@\xb9\x1e\x85\xebQ\xb8\xe6?\xecQ\xb8\x1e\x85\xeb-@(\\\x8f\xc2\xf5\xa8!@*\\\x8f\xc2\xf5($@\\\x8f\xc2\xf5(\\+@\xd6\xa3p=\nW0@\x8f\xc2\xf5(\\\x8f5@\xcc\xcc\xcc\xcc\xcc\xcc)@\xaeG\xe1z\x14\xae\x1c@{\x14\xaeG\xe1z\x00@\x84\xebQ\xb8\x1eE7@{\x14\xaeG\xe1z\xd4?{\x14\xaeG\xe1z>@\x90\xc2\xf5(\\O;@\x99\x99\x99\x99\x99\x99.@(\\\x8f\xc2\xf5(\x00@\xd7\xa3p=\n\xd7,@\xa4p=\n\xd7\xa3\xf8?\xcc\xcc\xcc\xcc\xcc\xcc.@gfffff\x1e@\x1f\x85\xebQ\xb8\xbe@@=\n\xd7\xa3p=\x18@\xb8\x1e\x85\xebQ8?@=\n\xd7\xa3p=\x06@Q\xb8\x1e\x85\xebQ\x19@gfffff\x02@R\xb8\x1e\x85\xebQ\x12@\xa4p=\n\xd7\xa3\x19@\xaeG\xe1z\x14\xae\x17@433333\'@\xa4p=\n\xd7\xa3\x12@\xb9\x1e\x85\xebQ\xb8\x12@\xd6\xa3p=\n\xd70@\x01\x00\x00\x00\x00\x00K@)\\\x8f\xc2\xf5\xe8@@\xd6\xa3p=\n\xd7#@\xa4p=\n\xd7\xa3\xc0?\\\x8f\xc2\xf5(\x9c5@G\xe1z\x14\xaeG\x1a@)\\\x8f\xc2\xf5(\x1d@>\n\xd7\xa3p=\xea?I\xe1z\x14\xae\xc78@\xaeG\xe1z\x14n0@\x1e\x85\xebQ\xb8\x1e!@\xa4p=\n\xd7\xa3"@R\xb8\x1e\x85\xebQ3@\xb7\x1e\x85\xebQ\xb8\x02@\xaeG\xe1z\x14. @\x01\x00\x00\x00\x00\x00\xe0?333333:@r=\n\xd7\xa3p\xfd?ffffff\x15@\x1e\x85\xebQ\xb8\x1e\x07@p=\n\xd7\xa3\xf0"@\x9a\x99\x99\x99\x99\x99\x0f@\xff\xff\xff\xff\xff\xff\x03@\xcc\xcc\xcc\xcc\xcc\xcc\x17@?\n\xd7\xa3p}<@\xd6\xa3p=\n\xd7\t@\x8d\xc2\xf5(\\\x8f\x06@\xd7\xa3p=\n\xd7,@\xaeG\xe1z\x14.)@\xaeG\xe1z\x14\xae\x01@\x02\x00\x00\x00\x00\x80.@\xcd\xcc\xcc\xcc\xcc\xcc\x0e@effff\xe6)@\xb8\x1e\x85\xebQ8%@Q\xb8\x1e\x85\xebQ\x06@\xf6(\\\x8f\xc250@\x0b\xd7\xa3p=\n\x13@]\x8f\xc2\xf5(\\/@\x90\xc2\xf5(\\\x8f\x15@gfffff\xfa?\xf6(\\\x8f\xc2\xf5\x14@\xafG\xe1z\x14\xae\x19@>\n\xd7\xa3p=\x00@{\x14\xaeG\xe1:9@\xa3p=\n\xd7\xa3\x18@>\n\xd7\xa3p=\x13@\x99\x99\x99\x99\x99\x99\x07@\xf5(\\\x8f\xc2u3@\x1f\x85\xebQ\xb8\x1e\xed?R\xb8\x1e\x85\xeb\x913@\x0b\xd7\xa3p=\n.@Q\xb8\x1e\x85\xebQ\x17@\xd7\xa3p=\nW&@\xd8\xa3p=\nW1@\xa4p=\n\xd7\xa3\x06@\x85\xebQ\xb8\x1e\x05/@\x1f\x85\xebQ\xb8\x1e\xf9?\xecQ\xb8\x1e\x85\xeb\xf5?\x8f\xc2\xf5(\\\x8f\x14@\\\x8f\xc2\xf5(\\\xe7?\xcc\xcc\xcc\xcc\xccL/@\\\x8f\xc2\xf5(\\ @\xa4p=\n\xd7\xa3\x02@\xedQ\xb8\x1e\x85\xeb\x1c@q=\n\xd7\xa3p\x10@'
p3081
tp3082
ba(lp3083
g15
(g16
(dp3084
g18
g19
(g20
(I0
tp3085
g22
tp3086
Rp3087
(I1
(L1L
tp3088
g29
I00
(lp3089
g33
atp3090
bsg38
Nstp3091
Rp3092
ag15
(g16
(dp3093
g18
g19
(g20
(I0
tp3094
g22
tp3095
Rp3096
(I1
(L1L
tp3097
g29
I00
(lp3098
g34
atp3099
bsg38
Nstp3100
Rp3101
ag15
(g16
(dp3102
g18
g19
(g20
(I0
tp3103
g22
tp3104
Rp3105
(I1
(L1L
tp3106
g29
I00
(lp3107
g35
atp3108
bsg38
Nstp3109
Rp3110
ag15
(g16
(dp3111
g18
g19
(g20
(I0
tp3112
g22
tp3113
Rp3114
(I1
(L1L
tp3115
g29
I00
(lp3116
g36
atp3117
bsg38
Nstp3118
Rp3119
a(dp3120
S'0.14.1'
p3121
(dp3122
S'axes'
p3123
g14
sS'blocks'
p3124
(lp3125
(dp3126
S'mgr_locs'
p3127
c__builtin__
slice
p3128
(I0
I1
I1
tp3129
Rp3130
sS'values'
p3131
g51
sa(dp3132
g3127
g3128
(I1
I2
I1
tp3133
Rp3134
sg3131
g263
sa(dp3135
g3127
g3128
(I2
I3
I1
tp3136
Rp3137
sg3131
g475
sa(dp3138
g3127
g3128
(I3
I4
I1
tp3139
Rp3140
sg3131
g3074
sasstp3141
bsb.